Archive member included because of file (symbol)

arch/arm/cpu/aml_meson/m1/libm1.a(mmutable.o)
                              arch/arm/cpu/aml_meson/start.o (mmu_table)
arch/arm/lib/libarm.a(cache_init.o)
                              arch/arm/cpu/aml_meson/start.o (cache_init)
arch/arm/lib/libarm.a(board.o)
                              arch/arm/cpu/aml_meson/start.o (start_armboot)
arch/arm/lib/libarm.a(cache.o)
                              arch/arm/lib/libarm.a(board.o) (icache_status)
arch/arm/lib/libarm.a(cache-cp15.o)
                              arch/arm/lib/libarm.a(cache.o) (cp15_icache_enable)
arch/arm/lib/libarm.a(interrupts.o)
                              arch/arm/lib/libarm.a(board.o) (enable_interrupts)
arch/arm/lib/libarm.a(cache_v7.o)
                              arch/arm/lib/libarm.a(cache.o) (_invalidate_dcache)
drivers/i2c/libi2c.a(aml_i2c.o)
                              arch/arm/lib/libarm.a(board.o) (aml_i2c_init)
drivers/mmc/libmmc.a(mmc.o)   arch/arm/lib/libarm.a(board.o) (mmc_initialize)
drivers/mtd/nand/libnand.a(m1_nand.o)
                              arch/arm/lib/libarm.a(board.o) (nand_init)
drivers/mtd/nand/libnand.a(aml_nand.o)
                              drivers/mtd/nand/libnand.a(m1_nand.o) (aml_nand_init)
drivers/mtd/nand/libnand.a(nand_base.o)
                              drivers/mtd/nand/libnand.a(aml_nand.o) (nand_scan_tail)
drivers/mtd/nand/libnand.a(nand_bbt.o)
                              drivers/mtd/nand/libnand.a(nand_base.o) (nand_isbad_bbt)
drivers/mtd/nand/libnand.a(nand_ecc.o)
                              drivers/mtd/nand/libnand.a(nand_base.o) (nand_calculate_ecc)
drivers/mtd/nand/libnand.a(nand_ids.o)
                              drivers/mtd/nand/libnand.a(nand_base.o) (nand_flash_ids)
drivers/rtc/librtc.a(aml_rtc.o)
                              arch/arm/lib/libarm.a(board.o) (aml_rtc_init)
drivers/rtc/librtc.a(rtc-lib.o)
                              drivers/rtc/librtc.a(aml_rtc.o) (rtc_time_to_tm)
common/libcommon.a(cmd_autoscript.o)
                              (__u_boot_cmd_autoscr)
common/libcommon.a(cmd_bdinfo.o)
                              (__u_boot_cmd_bdinfo)
common/libcommon.a(cmd_bmp.o)
                              (__u_boot_cmd_bmp)
common/libcommon.a(cmd_boot.o)
                              (__u_boot_cmd_go)
common/libcommon.a(cmd_bootm.o)
                              arch/arm/lib/libarm.a(board.o) (load_addr)
common/libcommon.a(cmd_console.o)
                              (__u_boot_cmd_coninfo)
common/libcommon.a(cmd_echo.o)
                              (__u_boot_cmd_echo)
common/libcommon.a(cmd_exit.o)
                              (__u_boot_cmd_exit)
common/libcommon.a(cmd_ext2.o)
                              (__u_boot_cmd_ext2ls)
common/libcommon.a(cmd_fat.o)
                              (__u_boot_cmd_fatload)
common/libcommon.a(cmd_help.o)
                              (__u_boot_cmd_help)
common/libcommon.a(cmd_itest.o)
                              (__u_boot_cmd_itest)
common/libcommon.a(cmd_load.o)
                              (__u_boot_cmd_loads)
common/libcommon.a(cmd_mem.o)
                              (__u_boot_cmd_md)
common/libcommon.a(cmd_misc.o)
                              (__u_boot_cmd_sleep)
common/libcommon.a(cmd_mmc.o)
                              (__u_boot_cmd_mmcinfo)
common/libcommon.a(cmd_mtdparts.o)
                              (__u_boot_cmd_chpart)
common/libcommon.a(cmd_nand.o)
                              (__u_boot_cmd_nand)
common/libcommon.a(cmd_nvedit.o)
                              arch/arm/lib/libarm.a(board.o) (getenv_r)
common/libcommon.a(cmd_sf.o)  (__u_boot_cmd_sf)
common/libcommon.a(cmd_source.o)
                              (__u_boot_cmd_source)
common/libcommon.a(cmd_test.o)
                              (__u_boot_cmd_test)
common/libcommon.a(cmd_ubi.o)
                              (__u_boot_cmd_ubi)
common/libcommon.a(cmd_ubifs.o)
                              (__u_boot_cmd_ubifsmount)
common/libcommon.a(cmd_usb.o)
                              (__u_boot_cmd_usb)
common/libcommon.a(cmd_version.o)
                              (__u_boot_cmd_version)
common/libcommon.a(cmd_ximg.o)
                              (__u_boot_cmd_imxtract)
common/libcommon.a(command.o)
                              common/libcommon.a(cmd_itest.o) (cmd_get_data_size)
common/libcommon.a(console.o)
                              arch/arm/lib/libarm.a(board.o) (printf)
common/libcommon.a(dlmalloc.o)
                              drivers/mtd/nand/libnand.a(m1_nand.o) (free)
common/libcommon.a(env_common.o)
                              common/libcommon.a(cmd_nvedit.o) (env_get_addr)
common/libcommon.a(env_nand.o)
                              common/libcommon.a(env_common.o) (env_get_char_spec)
common/libcommon.a(exports.o)
                              arch/arm/lib/libarm.a(board.o) (jumptable_init)
common/libcommon.a(hush.o)    common/libcommon.a(cmd_autoscript.o) (parse_string_outer)
common/libcommon.a(image.o)   common/libcommon.a(cmd_ximg.o) (image_multi_count)
common/libcommon.a(kgdb.o)    arch/arm/lib/libarm.a(board.o) (kgdb_init)
common/libcommon.a(kgdb_stubs.o)
                              common/libcommon.a(kgdb.o) (kgdb_flush_cache_all)
common/libcommon.a(lcd_aml.o)
                              common/libcommon.a(cmd_bmp.o) (lcd_display_bitmap)
common/libcommon.a(main.o)    common/libcommon.a(cmd_nvedit.o) (do_run)
common/libcommon.a(s_record.o)
                              common/libcommon.a(cmd_load.o) (srec_decode)
common/libcommon.a(stdio.o)   common/libcommon.a(cmd_console.o) (stdio_get_list)
common/libcommon.a(usb.o)     common/libcommon.a(cmd_usb.o) (usb_get_dev_index)
common/libcommon.a(usb_storage.o)
                              common/libcommon.a(cmd_usb.o) (usb_stor_get_dev)
common/libcommon.a(xyzModem.o)
                              common/libcommon.a(cmd_load.o) (xyzModem_error)
board/amlogic/8726m_mid_refb04/lib8726m_mid_refb04.a(8726m_mid_refb04.o)
                              arch/arm/lib/libarm.a(board.o) (misc_init_r)
board/amlogic/8726m_mid_refb04/lib8726m_mid_refb04.a(lcd.o)
                              common/libcommon.a(lcd_aml.o) (panel_info)
board/amlogic/8726m_mid_refb04/lib8726m_mid_refb04.a(saradc.o)
                              board/amlogic/8726m_mid_refb04/lib8726m_mid_refb04.a(8726m_mid_refb04.o) (saradc_enable)
board/amlogic/8726m_mid_refb04/lib8726m_mid_refb04.a(powerkey.o)
                              common/libcommon.a(main.o) (powerkey_init)
board/amlogic/8726m_mid_refb04/lib8726m_mid_refb04.a(upgrade.o)
                              board/amlogic/8726m_mid_refb04/lib8726m_mid_refb04.a(8726m_mid_refb04.o) (upgrade_env)
board/amlogic/8726m_mid_refb04/lib8726m_mid_refb04.a(battery_charging.o)
                              board/amlogic/8726m_mid_refb04/lib8726m_mid_refb04.a(8726m_mid_refb04.o) (ac_connected)
board/amlogic/8726m_mid_refb04/lib8726m_mid_refb04.a(debug.o)
                              board/amlogic/8726m_mid_refb04/lib8726m_mid_refb04.a(8726m_mid_refb04.o) (debug_image)
lib/libgeneric.a(crc16.o)     common/libcommon.a(xyzModem.o) (cyg_crc16)
lib/libgeneric.a(crc32.o)     common/libcommon.a(cmd_mem.o) (crc32)
lib/libgeneric.a(ctype.o)     common/libcommon.a(cmd_mtdparts.o) (_ctype)
lib/libgeneric.a(display_options.o)
                              arch/arm/lib/libarm.a(board.o) (print_size)
lib/libgeneric.a(div64.o)     drivers/mmc/libmmc.a(mmc.o) (__div64_32)
lib/libgeneric.a(gunzip.o)    common/libcommon.a(cmd_bootm.o) (gunzip)
lib/libgeneric.a(net_utils.o)
                              arch/arm/lib/libarm.a(board.o) (string_to_ip)
lib/libgeneric.a(string.o)    common/libcommon.a(cmd_bootm.o) (strcpy)
lib/libgeneric.a(time.o)      drivers/i2c/libi2c.a(aml_i2c.o) (udelay)
lib/libgeneric.a(vsprintf.o)  arch/arm/lib/libarm.a(board.o) (simple_strtoul)
lib/libgeneric.a(zlib.o)      lib/libgeneric.a(gunzip.o) (inflateInit2_)
lib/lzma/liblzma.a(LzmaTools.o)
                              common/libcommon.a(cmd_bootm.o) (lzmaBuffToBuffDecompress)
lib/lzma/liblzma.a(LzmaDec.o)
                              lib/lzma/liblzma.a(LzmaTools.o) (LzmaDecode)
lib/lzo/liblzo.a(lzo1x_decompress.o)
                              common/libcommon.a(cmd_bootm.o) (lzop_decompress)
arch/arm/cpu/aml_meson/m1/libm1.a(timer.o)
                              arch/arm/lib/libarm.a(board.o) (timer_init)
arch/arm/cpu/aml_meson/m1/libm1.a(soc.o)
                              arch/arm/lib/libarm.a(interrupts.o) (reset_cpu)
arch/arm/cpu/aml_meson/m1/libm1.a(board.o)
                              arch/arm/lib/libarm.a(board.o) (dram_init)
arch/arm/cpu/aml_meson/m1/libm1.a(sdio.o)
                              board/amlogic/8726m_mid_refb04/lib8726m_mid_refb04.a(8726m_mid_refb04.o) (cpu_sdio_get)
arch/arm/cpu/aml_meson/m1/libm1.a(serial.o)
                              common/libcommon.a(console.o) (serial_putc)
arch/arm/cpu/aml_meson/m1/libm1.a(clock.o)
                              drivers/i2c/libi2c.a(aml_i2c.o) (get_clk81)
arch/arm/cpu/aml_meson/m1/libm1.a(pinmux.o)
                              board/amlogic/8726m_mid_refb04/lib8726m_mid_refb04.a(lcd.o) (clear_mio_mux)
arch/arm/cpu/aml_meson/m1/libm1.a(gpio.o)
                              board/amlogic/8726m_mid_refb04/lib8726m_mid_refb04.a(lcd.o) (set_gpio_mode)
arch/arm/cpu/aml_meson/m1/libm1.a(tcon.o)
                              board/amlogic/8726m_mid_refb04/lib8726m_mid_refb04.a(lcd.o) (tcon_remove)
arch/arm/cpu/aml_meson/m1/libm1.a(osd_hw.o)
                              board/amlogic/8726m_mid_refb04/lib8726m_mid_refb04.a(lcd.o) (osd_init_hw)
arch/arm/cpu/aml_meson/m1/libm1.a(canvas.o)
                              arch/arm/cpu/aml_meson/m1/libm1.a(osd_hw.o) (canvas_config)
arch/arm/lib/libarm.a(bootm.o)
                              common/libcommon.a(cmd_bootm.o) (do_bootm_linux)
arch/arm/lib/libarm.a(reset.o)
                              common/libcommon.a(cmd_boot.o) (do_reset)
arch/arm/lib/libarm.a(kgdb.o)
                              common/libcommon.a(kgdb.o) (kgdb_breakpoint)
fs/fat/libfat.a(fat.o)        common/libcommon.a(cmd_fat.o) (file_fat_detectfs)
fs/ext2/libext2fs.a(ext2fs.o)
                              common/libcommon.a(cmd_ext2.o) (ext2fs_mount)
fs/ext2/libext2fs.a(dev.o)    fs/ext2/libext2fs.a(ext2fs.o) (ext2fs_devread)
fs/ubifs/libubifs.a(ubifs.o)  common/libcommon.a(cmd_ubifs.o) (ubifs_ls)
fs/ubifs/libubifs.a(super.o)  fs/ubifs/libubifs.a(ubifs.o) (ubifs_iput)
fs/ubifs/libubifs.a(sb.o)     fs/ubifs/libubifs.a(super.o) (ubifs_read_superblock)
fs/ubifs/libubifs.a(master.o)
                              fs/ubifs/libubifs.a(super.o) (ubifs_read_master)
fs/ubifs/libubifs.a(lpt.o)    fs/ubifs/libubifs.a(super.o) (ubifs_lpt_init)
fs/ubifs/libubifs.a(lpt_commit.o)
                              fs/ubifs/libubifs.a(super.o) (ubifs_lpt_free)
fs/ubifs/libubifs.a(scan.o)   fs/ubifs/libubifs.a(master.o) (ubifs_scan_destroy)
fs/ubifs/libubifs.a(lprops.o)
                              fs/ubifs/libubifs.a(lpt.o) (ubifs_add_to_cat)
fs/ubifs/libubifs.a(tnc.o)    fs/ubifs/libubifs.a(ubifs.o) (ubifs_tnc_next_ent)
fs/ubifs/libubifs.a(tnc_misc.o)
                              fs/ubifs/libubifs.a(tnc.o) (ubifs_search_zbranch)
fs/ubifs/libubifs.a(crc16.o)  fs/ubifs/libubifs.a(lpt.o) (crc16)
fs/ubifs/libubifs.a(budget.o)
                              fs/ubifs/libubifs.a(super.o) (ubifs_reported_space)
fs/ubifs/libubifs.a(orphan.o)
                              fs/ubifs/libubifs.a(super.o) (ubifs_mount_orphans)
fs/ubifs/libubifs.a(recovery.o)
                              fs/ubifs/libubifs.a(super.o) (ubifs_recover_size)
fs/ubifs/libubifs.a(replay.o)
                              fs/ubifs/libubifs.a(tnc.o) (ubifs_validate_entry)
fs/ubifs/libubifs.a(io.o)     fs/ubifs/libubifs.a(scan.o) (ubifs_check_node)
fs/ubifs/libubifs.a(log.o)    fs/ubifs/libubifs.a(replay.o) (ubifs_search_bud)
disk/libdisk.a(part.o)        common/libcommon.a(cmd_mmc.o) (print_part)
disk/libdisk.a(part_dos.o)    disk/libdisk.a(part.o) (test_part_dos)
drivers/mmc/libmmc.a(aml_sd_mmc.o)
                              board/amlogic/8726m_mid_refb04/lib8726m_mid_refb04.a(8726m_mid_refb04.o) (aml_sd_send_cmd)
drivers/mtd/libmtd.a(mtdcore.o)
                              drivers/mtd/nand/libnand.a(aml_nand.o) (add_mtd_device)
drivers/mtd/libmtd.a(mtdpart.o)
                              drivers/mtd/nand/libnand.a(nand_base.o) (mtd_erase_callback)
drivers/mtd/nand/libnand.a(nand_util.o)
                              common/libcommon.a(cmd_nand.o) (nand_write_skip_bad)
drivers/mtd/ubi/libubi.a(build.o)
                              common/libcommon.a(cmd_ubi.o) (ubi_devices)
drivers/mtd/ubi/libubi.a(vtbl.o)
                              drivers/mtd/ubi/libubi.a(build.o) (ubi_read_volume_table)
drivers/mtd/ubi/libubi.a(vmt.o)
                              drivers/mtd/ubi/libubi.a(build.o) (ubi_free_volume)
drivers/mtd/ubi/libubi.a(upd.o)
                              common/libcommon.a(cmd_ubi.o) (ubi_more_update_data)
drivers/mtd/ubi/libubi.a(kapi.o)
                              fs/ubifs/libubifs.a(super.o) (ubi_get_volume_info)
drivers/mtd/ubi/libubi.a(eba.o)
                              drivers/mtd/ubi/libubi.a(build.o) (ubi_eba_close)
drivers/mtd/ubi/libubi.a(io.o)
                              drivers/mtd/ubi/libubi.a(vtbl.o) (ubi_io_write)
drivers/mtd/ubi/libubi.a(wl.o)
                              drivers/mtd/ubi/libubi.a(build.o) (ubi_wl_close)
drivers/mtd/ubi/libubi.a(scan.o)
                              drivers/mtd/ubi/libubi.a(vtbl.o) (ubi_scan_find_sv)
drivers/mtd/ubi/libubi.a(crc32.o)
                              fs/ubifs/libubifs.a(tnc.o) (crc32_le)
drivers/mtd/ubi/libubi.a(misc.o)
                              drivers/mtd/ubi/libubi.a(upd.o) (ubi_calc_data_len)
drivers/mtd/spi/libspi_flash.a(spi_flash_aml.o)
                              common/libcommon.a(cmd_sf.o) (spi_flash_free)
drivers/mtd/spi/libspi_flash.a(macronix.o)
                              drivers/mtd/spi/libspi_flash.a(spi_flash_aml.o) (spi_flash_probe_mxic)
drivers/mtd/spi/libspi_flash.a(sst.o)
                              drivers/mtd/spi/libspi_flash.a(spi_flash_aml.o) (spi_flash_probe_sst)
drivers/mtd/spi/libspi_flash.a(winbond.o)
                              drivers/mtd/spi/libspi_flash.a(spi_flash_aml.o) (spi_flash_probe_winbond)
drivers/spi/libspi.a(amlogic_spi_a.o)
                              drivers/mtd/spi/libspi_flash.a(spi_flash_aml.o) (spi_claim_bus)
drivers/usb/host/libusb_host.a(dwc_otg_hcd.o)
                              common/libcommon.a(usb.o) (submit_int_msg)
common/libcommon.a(devfont.o)
                              board/amlogic/8726m_mid_refb04/lib8726m_mid_refb04.a(8726m_mid_refb04.o) (RegisterFont)
lib/libgeneric.a(rbtree.o)    fs/ubifs/libubifs.a(tnc.o) (rb_insert_color)
arch/arm/cpu/aml_meson/libaml_meson.a(cpu.o)
                              arch/arm/lib/libarm.a(bootm.o) (cleanup_before_linux)
arch/arm/cpu/aml_meson/m1/libm1.a(usb.o)
                              drivers/usb/host/libusb_host.a(dwc_otg_hcd.o) (board_usb_stop)
/opt/toolchains/arm-mlogic/bin/../lib/gcc/arm-none-eabi/4.4.1/libgcc.a(_udivsi3.o)
                              drivers/i2c/libi2c.a(aml_i2c.o) (__aeabi_uidiv)
/opt/toolchains/arm-mlogic/bin/../lib/gcc/arm-none-eabi/4.4.1/libgcc.a(_divsi3.o)
                              drivers/mtd/nand/libnand.a(aml_nand.o) (__aeabi_idiv)
/opt/toolchains/arm-mlogic/bin/../lib/gcc/arm-none-eabi/4.4.1/libgcc.a(_dvmd_tls.o)
                              /opt/toolchains/arm-mlogic/bin/../lib/gcc/arm-none-eabi/4.4.1/libgcc.a(_udivsi3.o) (__aeabi_idiv0)
/opt/toolchains/arm-mlogic/bin/../lib/gcc/arm-none-eabi/4.4.1/libgcc.a(_lshrdi3.o)
                              drivers/mtd/nand/libnand.a(nand_base.o) (__aeabi_llsr)
/opt/toolchains/arm-mlogic/bin/../lib/gcc/arm-none-eabi/4.4.1/libgcc.a(_ashldi3.o)
                              drivers/mtd/nand/libnand.a(nand_base.o) (__aeabi_llsl)
/opt/toolchains/arm-mlogic/bin/../lib/gcc/arm-none-eabi/4.4.1/libgcc.a(_aeabi_ldivmod.o)
                              drivers/mtd/nand/libnand.a(aml_nand.o) (__aeabi_ldivmod)
/opt/toolchains/arm-mlogic/bin/../lib/gcc/arm-none-eabi/4.4.1/libgcc.a(_aeabi_uldivmod.o)
                              common/libcommon.a(cmd_mtdparts.o) (__aeabi_uldivmod)
/opt/toolchains/arm-mlogic/bin/../lib/gcc/arm-none-eabi/4.4.1/libgcc.a(bpabi.o)
                              /opt/toolchains/arm-mlogic/bin/../lib/gcc/arm-none-eabi/4.4.1/libgcc.a(_aeabi_uldivmod.o) (__gnu_uldivmod_helper)
/opt/toolchains/arm-mlogic/bin/../lib/gcc/arm-none-eabi/4.4.1/libgcc.a(_divdi3.o)
                              /opt/toolchains/arm-mlogic/bin/../lib/gcc/arm-none-eabi/4.4.1/libgcc.a(bpabi.o) (__divdi3)
/opt/toolchains/arm-mlogic/bin/../lib/gcc/arm-none-eabi/4.4.1/libgcc.a(_udivdi3.o)
                              /opt/toolchains/arm-mlogic/bin/../lib/gcc/arm-none-eabi/4.4.1/libgcc.a(bpabi.o) (__udivdi3)
/opt/toolchains/arm-mlogic/bin/../lib/gcc/arm-none-eabi/4.4.1/libgcc.a(_clzsi2.o)
                              /opt/toolchains/arm-mlogic/bin/../lib/gcc/arm-none-eabi/4.4.1/libgcc.a(_divdi3.o) (__clzsi2)

Allocating common symbols
Common symbol       size              file

dp_last_size        0x4               common/libcommon.a(cmd_mem.o)
console_buffer      0x101             common/libcommon.a(main.o)
font_arrays         0x40              common/libcommon.a(devfont.o)
usb_started         0x1               common/libcommon.a(usb.o)
monitor_flash_len   0x4               arch/arm/lib/libarm.a(board.o)
ubi_class           0x4               drivers/mtd/ubi/libubi.a(build.o)
ubifs_compressors   0xc               fs/ubifs/libubifs.a(ubifs.o)
args_buf            0x400             arch/arm/lib/libarm.a(bootm.o)
___strtok           0x4               lib/libgeneric.a(string.o)
mtd_partitions      0x8               drivers/mtd/libmtd.a(mtdpart.o)
get_vfatname_block  0x10000           fs/fat/libfat.a(fat.o)
ubifs_infos         0x8               fs/ubifs/libubifs.a(super.o)
ubi_devices         0x80              drivers/mtd/ubi/libubi.a(build.o)
nand_info           0x10              drivers/mtd/nand/libnand.a(m1_nand.o)
dp_last_addr        0x4               common/libcommon.a(cmd_mem.o)
his_pad_char        0x1               common/libcommon.a(cmd_load.o)
debugger_exception_handler
                    0x4               common/libcommon.a(kgdb_stubs.o)
mm_last_size        0x4               common/libcommon.a(cmd_mem.o)
os_data_init        0x4               common/libcommon.a(cmd_load.o)
mm_last_addr        0x4               common/libcommon.a(cmd_mem.o)
mtd_table           0x80              drivers/mtd/libmtd.a(mtdcore.o)
nesting_level       0x4               common/libcommon.a(hush.o)
send_ptr            0x4               common/libcommon.a(cmd_load.o)
last_return_code    0x4               common/libcommon.a(hush.o)
os_data_char        0x4               common/libcommon.a(cmd_load.o)
mtdids              0x8               common/libcommon.a(cmd_mtdparts.o)
his_eol             0x1               common/libcommon.a(cmd_load.o)
get_dentfromdir_block
                    0x10000           fs/fat/libfat.a(fat.o)
devices             0x8               common/libcommon.a(cmd_mtdparts.o)
his_quote           0x1               common/libcommon.a(cmd_load.o)
ubifs_sb            0x4               fs/ubifs/libubifs.a(super.o)
do_fat_read_block   0x10000           fs/fat/libfat.a(fat.o)
send_parms          0x14              common/libcommon.a(cmd_load.o)
his_pad_count       0x4               common/libcommon.a(cmd_load.o)

Memory Configuration

Name             Origin             Length             Attributes
*default*        0x00000000         0xffffffff

Linker script and memory map

                0x00000000                . = 0x0
                0x00000000                . = ALIGN (0x4)

.text           0x8f800000    0x5639c
 arch/arm/cpu/aml_meson/start.o(.text)
 .text          0x8f800000      0x3e0 arch/arm/cpu/aml_meson/start.o
                0x8f800000                _start
                0x8f800040                _end_vect
                0x8f800044                _armboot_start
                0x8f800048                _bss_start
                0x8f80004c                _bss_end
 *(.text)
 .text          0x8f8003e0        0x0 arch/arm/cpu/aml_meson/m1/libm1.a(mmutable.o)
 .text          0x8f8003e0       0xc8 arch/arm/lib/libarm.a(cache_init.o)
                0x8f8003e0                cache_init
 .text          0x8f8004a8      0x27c arch/arm/lib/libarm.a(board.o)
                0x8f8004a8                coloured_LED_init
                0x8f8004a8                __coloured_LED_init
                0x8f8004ac                red_LED_on
                0x8f8004ac                __red_LED_on
                0x8f8004b0                __red_LED_off
                0x8f8004b0                red_LED_off
                0x8f8004b4                green_LED_on
                0x8f8004b4                __green_LED_on
                0x8f8004b8                __green_LED_off
                0x8f8004b8                green_LED_off
                0x8f8004bc                __yellow_LED_on
                0x8f8004bc                yellow_LED_on
                0x8f8004c0                __yellow_LED_off
                0x8f8004c0                yellow_LED_off
                0x8f8004c4                blue_LED_on
                0x8f8004c4                __blue_LED_on
                0x8f8004c8                blue_LED_off
                0x8f8004c8                __blue_LED_off
                0x8f8004cc                hang
                0x8f800598                start_armboot
 .text          0x8f800724      0x170 arch/arm/lib/libarm.a(cache.o)
                0x8f800724                dcache_inv_line
                0x8f800730                dcache_clean_line
                0x8f80073c                dcache_clean_range
                0x8f800768                dcache_flush_line
                0x8f800774                dcache_invalid_range
                0x8f8007c8                dcache_flush_range
                0x8f8007f4                icache_status
                0x8f800800                dcache_status
                0x8f80080c                icache_invalid
                0x8f800818                icache_disable
                0x8f800824                icache_enable
                0x8f800830                dcache_flush
                0x8f800848                flush_cache
                0x8f800854                dcache_invalid
                0x8f800860                dcache_clean
                0x8f800878                dcache_disable
                0x8f800888                dcache_enable
 .text          0x8f800894       0xcc arch/arm/lib/libarm.a(cache-cp15.o)
                0x8f800908                cp15_icache_enable
                0x8f800918                cp15_icache_disable
                0x8f800928                cp15_icache_status
                0x8f800934                cp15_dcache_enable
                0x8f800944                cp15_dcache_disable
                0x8f800954                cp15_dcache_status
 .text          0x8f800960      0x2a0 arch/arm/lib/libarm.a(interrupts.o)
                0x8f800960                enable_interrupts
                0x8f800964                disable_interrupts
                0x8f80096c                show_regs
                0x8f800abc                bad_mode
                0x8f800ad8                do_irq
                0x8f800afc                do_fiq
                0x8f800b20                do_not_used
                0x8f800b44                do_data_abort
                0x8f800b68                do_prefetch_abort
                0x8f800b8c                do_software_interrupt
                0x8f800bb0                do_undefined_instruction
 .text          0x8f800c00      0x140 arch/arm/lib/libarm.a(cache_v7.o)
                0x8f800c00                _invalidate_dcache
                0x8f800c4c                _clean_dcache
                0x8f800c98                _clean_invd_dcache
                0x8f800ce4                _clean_dcache_addr
                0x8f800cf4                _invalidate_dcache_addr2
                0x8f800d00                _invalidate_dcache_addr
                0x8f800d10                _clean_invd_dcache_addr
                0x8f800d20                _invalidate_icache
 .text          0x8f800d40      0xf38 drivers/i2c/libi2c.a(aml_i2c.o)
                0x8f801014                aml_i2c_xfer
                0x8f8019f0                aml_i2c_init
 .text          0x8f801c78     0x17d0 drivers/mmc/libmmc.a(mmc.o)
                0x8f801c78                mmc_set_ios
                0x8f801c88                mmc_set_clock
                0x8f801cb0                mmc_set_bus_width
                0x8f801cc0                mmc_register
                0x8f801d14                cpu_mmc_init
                0x8f801d1c                print_mmc_devices
                0x8f801d90                mmc_initialize
                0x8f801dcc                find_mmc_device
                0x8f801e38                mmc_get_dev
                0x8f801e58                mmc_send_cmd
                0x8f801eb4                mmc_send_if_cond
                0x8f801f3c                mmc_switch
                0x8f801f7c                mmc_send_ext_csd
                0x8f801fcc                mmc_change_freq
                0x8f8020b8                sd_get_card_status
                0x8f802110                mmc_set_blocklen
                0x8f802144                sd_get_sd_status
                0x8f8021f0                sd_send_op_cond
                0x8f802328                mmc_go_idle
                0x8f802378                mmc_send_op_cond
                0x8f802448                sd_wait_card_status
                0x8f8024d8                mmc_read_block
                0x8f8025ac                mmc_read_multi
                0x8f8027e4                mmc_write_block
                0x8f8028b8                mmc_write_multi
                0x8f802af0                sd_switch
                0x8f802b94                sd_change_freq
                0x8f802dcc                mmc_startup
                0x8f8033c0                mmc_init
 .text          0x8f803448      0x19c drivers/mtd/nand/libnand.a(m1_nand.o)
                0x8f803448                nand_init
 .text          0x8f8035e4     0x486c drivers/mtd/nand/libnand.a(aml_nand.o)
                0x8f8068e4                aml_nand_scan
                0x8f807290                aml_nand_init
 .text          0x8f807e50     0x41d8 drivers/mtd/nand/libnand.a(nand_base.o)
                0x8f809328                nand_release
                0x8f809380                nand_scan_tail
                0x8f80a720                nand_wait_ready
                0x8f80af7c                nand_raw_read_factory_info
                0x8f80b464                nand_erase_nand
                0x8f80b82c                nand_scan_ident
                0x8f80c008                nand_scan
 .text          0x8f80c028     0x1c4c drivers/mtd/nand/libnand.a(nand_bbt.o)
                0x8f80c164                nand_isbad_bbt
                0x8f80d2fc                nand_update_bbt
                0x8f80d698                nand_scan_bbt
                0x8f80db88                nand_default_bbt
 .text          0x8f80dc74      0x23c drivers/mtd/nand/libnand.a(nand_ecc.o)
                0x8f80dc74                nand_calculate_ecc
                0x8f80dd70                nand_correct_data
 .text          0x8f80deb0        0x0 drivers/mtd/nand/libnand.a(nand_ids.o)
 .text          0x8f80deb0      0x5cc drivers/rtc/librtc.a(aml_rtc.o)
                0x8f80deb0                rtc_ser_static_write_auto
                0x8f80e0dc                aml_rtc_init
                0x8f80e108                aml_rtc_write_time
                0x8f80e174                aml_rtc_read_time
 .text          0x8f80e47c      0x35c drivers/rtc/librtc.a(rtc-lib.o)
                0x8f80e4d0                rtc_month_days
                0x8f80e508                rtc_year_days
                0x8f80e544                rtc_time_to_tm
                0x8f80e690                rtc_valid_tm
                0x8f80e704                mktime
                0x8f80e78c                rtc_tm_to_time
 .text          0x8f80e7d8      0x1d8 common/libcommon.a(cmd_autoscript.o)
                0x8f80e7d8                autoscript
                0x8f80e968                do_autoscript
 .text          0x8f80e9b0       0xa0 common/libcommon.a(cmd_bdinfo.o)
                0x8f80e9d0                do_bdinfo
 .text          0x8f80ea50      0x2c4 common/libcommon.a(cmd_bmp.o)
                0x8f80ea50                gunzip_bmp
 .text          0x8f80ed14       0xe0 common/libcommon.a(cmd_boot.o)
                0x8f80ed14                do_go_exec
                0x8f80ed80                do_go
 .text          0x8f80edf4      0xd14 common/libcommon.a(cmd_bootm.o)
                0x8f80edf4                arch_preboot_os
                0x8f80edf4                __arch_preboot_os
                0x8f80edf8                do_bootd
                0x8f80f62c                do_bootm_subcommand
                0x8f80f820                do_bootm
 .text          0x8f80fb08      0x10c common/libcommon.a(cmd_console.o)
                0x8f80fb08                do_coninfo
 .text          0x8f80fc14       0xa0 common/libcommon.a(cmd_echo.o)
                0x8f80fc14                do_echo
 .text          0x8f80fcb4       0x38 common/libcommon.a(cmd_exit.o)
                0x8f80fcb4                do_exit
 .text          0x8f80fcec      0x4f4 common/libcommon.a(cmd_ext2.o)
                0x8f80fcec                do_ext2load
                0x8f810070                do_ext2ls
 .text          0x8f8101e0      0x538 common/libcommon.a(cmd_fat.o)
                0x8f8101e0                do_fat_fsinfo
                0x8f8102d0                do_fat_ls
                0x8f810404                do_fat_exist
                0x8f810574                do_fat_fsload
 .text          0x8f810718       0x4c common/libcommon.a(cmd_help.o)
                0x8f810718                do_help
 .text          0x8f810764      0x324 common/libcommon.a(cmd_itest.o)
                0x8f810800                binary_test
                0x8f8109e8                do_itest
 .text          0x8f810a88     0x10a8 common/libcommon.a(cmd_load.o)
                0x8f810a88                ktrans
                0x8f810ab0                chk1
                0x8f810b28                k_data_init
                0x8f810b50                k_data_save
                0x8f810b74                k_data_restore
                0x8f810b98                k_data_char
                0x8f810c14                send_pad
                0x8f810c4c                s1_sendpacket
                0x8f810c78                handle_send_packet
                0x8f810f70                send_nack
                0x8f810fd8                send_ack
                0x8f811278                do_load_serial_bin
                0x8f811a38                do_load_serial
 .text          0x8f811b30      0xa90 common/libcommon.a(cmd_mem.o)
                0x8f811b30                do_mem_crc
                0x8f811be0                do_mem_base
                0x8f811c28                do_mem_mtest
                0x8f811e30                do_mem_loop
                0x8f811f34                do_mem_cp
                0x8f812024                do_mem_cmp
                0x8f8121cc                do_mem_mw
                0x8f812468                do_mem_nm
                0x8f812494                do_mem_mm
                0x8f8124c0                do_mem_md
 .text          0x8f8125c0       0x88 common/libcommon.a(cmd_misc.o)
                0x8f8125c0                do_sleep
 .text          0x8f812648      0x428 common/libcommon.a(cmd_mmc.o)
                0x8f812648                do_mmcops
                0x8f8128ec                do_mmcselect
                0x8f812918                do_mmcinfo
 .text          0x8f812a70     0x28bc common/libcommon.a(cmd_mtdparts.o)
                0x8f812a70                device_find
                0x8f8131a4                mtd_id_parse
                0x8f8132e0                find_dev_and_part
                0x8f813f8c                mtd_device_validate
                0x8f814438                mtdparts_init
                0x8f814b4c                do_mtdparts
                0x8f81525c                do_chpart
 .text          0x8f81532c     0x1e10 common/libcommon.a(cmd_nand.o)
                0x8f8155c0                do_nandboot
                0x8f81619c                do_nand
 .text          0x8f81713c      0x9d8 common/libcommon.a(cmd_nvedit.o)
                0x8f81713c                get_env_id
                0x8f81714c                envmatch
                0x8f8171b0                getenv_r
                0x8f817268                do_saveenv
                0x8f817294                getenv
                0x8f81730c                do_defenv
                0x8f81731c                do_loadenv
                0x8f817380                _do_setenv
                0x8f817848                do_setenv
                0x8f817874                setenv
                0x8f8178d4                do_editenv
                0x8f817a60                do_printenv
 .text          0x8f817b14      0x49c common/libcommon.a(cmd_sf.o)
 .text          0x8f817fb0      0x1d8 common/libcommon.a(cmd_source.o)
                0x8f817fb0                source
                0x8f818140                do_source
 .text          0x8f818188      0x53c common/libcommon.a(cmd_test.o)
                0x8f818188                do_false
                0x8f818190                do_true
                0x8f818198                do_test
 .text          0x8f8186c4     0x1110 common/libcommon.a(cmd_ubi.o)
 .text          0x8f8197d4      0x1dc common/libcommon.a(cmd_ubifs.o)
                0x8f8197d4                do_ubifs_load
                0x8f8198d0                do_ubifs_ls
                0x8f81993c                do_ubifs_mount
 .text          0x8f8199b0     0x1340 common/libcommon.a(cmd_usb.o)
                0x8f8199b0                usb_get_class_desc
                0x8f819a74                usb_display_ep_desc
                0x8f819b50                usb_display_class_sub
                0x8f819d44                do_usbboot
                0x8f81a114                usb_show_tree_graph
                0x8f81a374                usb_show_tree
                0x8f81a3a8                usb_display_desc
                0x8f81a4d8                usb_display_string
                0x8f81a514                usb_display_if_desc
                0x8f81a5a0                usb_display_conf_desc
                0x8f81a650                usb_display_config
                0x8f81a6fc                do_usb
 .text          0x8f81acf0       0x20 common/libcommon.a(cmd_version.o)
                0x8f81acf0                do_version
 .text          0x8f81ad10      0x308 common/libcommon.a(cmd_ximg.o)
                0x8f81ad10                do_imgextract
 .text          0x8f81b018      0xab8 common/libcommon.a(command.o)
                0x8f81b018                cmd_get_data_size
                0x8f81b0dc                cmd_usage
                0x8f81b13c                var_complete
                0x8f81b1ec                find_cmd_tbl
                0x8f81b290                find_cmd
                0x8f81b2c0                cmd_auto_complete
                0x8f81b8c4                install_auto_complete
                0x8f81b914                _do_help
 .text          0x8f81bad0      0x59c common/libcommon.a(console.o)
                0x8f81bb78                fgetc
                0x8f81bba4                ftstc
                0x8f81bbd0                fputc
                0x8f81bbf8                fputs
                0x8f81bc20                disable_ctrlc
                0x8f81bc38                had_ctrlc
                0x8f81bc48                clear_ctrlc
                0x8f81bc5c                dbg
                0x8f81bc68                console_init_f
                0x8f81bc78                search_device
                0x8f81bca4                console_assign
                0x8f81bce8                fprintf
                0x8f81bd2c                puts
                0x8f81bd54                vprintf
                0x8f81bd84                printf
                0x8f81bdc0                stdio_print_current_devices
                0x8f81be88                console_init_r
                0x8f81bf68                serial_printf
                0x8f81bfa4                putc
                0x8f81bfcc                tstc
                0x8f81bff0                getc
                0x8f81c014                ctrlc
 .text          0x8f81c06c     0x1358 common/libcommon.a(dlmalloc.o)
                0x8f81c06c                sbrk
                0x8f81c0b8                malloc_trim
                0x8f81c1ac                free
                0x8f81c448                cfree
                0x8f81c454                malloc
                0x8f81cbd8                memalign
                0x8f81ccfc                pvalloc
                0x8f81cd1c                valloc
                0x8f81cd30                malloc_usable_size
                0x8f81cd7c                mallopt
                0x8f81ce00                calloc
                0x8f81ced4                mem_malloc_init
                0x8f81cf00                realloc
 .text          0x8f81d3c4      0x328 common/libcommon.a(env_common.o)
                0x8f81d3c4                env_get_char_memory
                0x8f81d3ec                env_get_addr
                0x8f81d414                env_crc_update
                0x8f81d440                set_default_env
                0x8f81d484                env_relocate
                0x8f81d4e0                env_import
                0x8f81d570                env_get_char
                0x8f81d5ac                env_complete
 .text          0x8f81d6ec      0x31c common/libcommon.a(env_nand.o)
                0x8f81d6ec                env_get_char_spec
                0x8f81d6f8                env_init
                0x8f81d714                writeenv
                0x8f81d7f8                readenv
                0x8f81d8f4                env_relocate_spec
                0x8f81d954                saveenv
 .text          0x8f81da08      0x194 common/libcommon.a(exports.o)
                0x8f81da0c                get_version
                0x8f81da14                jumptable_init
 .text          0x8f81db9c     0x2194 common/libcommon.a(hush.o)
                0x8f81dbc0                simple_itoa
                0x8f81dce0                mapset
                0x8f81dd24                do_showvar
                0x8f81de84                u_boot_hush_start
                0x8f81df04                new_pipe
                0x8f81e254                unset_local_var
                0x8f81e42c                reserved_word
                0x8f81e9fc                set_local_var
                0x8f81ebd4                update_ifs_map
                0x8f81f290                parse_file_outer
                0x8f81f2d8                parse_string_outer
 .text          0x8f81fd30      0x8cc common/libcommon.a(image.o)
                0x8f81fd30                image_multi_count
                0x8f81fd5c                get_table_entry_name
                0x8f81fd9c                genimg_get_os_name
                0x8f81fdbc                genimg_get_arch_name
                0x8f81fddc                genimg_get_type_name
                0x8f81fdfc                genimg_get_comp_name
                0x8f81fe1c                genimg_get_image
                0x8f81fe20                genimg_has_config
                0x8f81fe28                get_table_entry_id
                0x8f81fe7c                genimg_get_comp_id
                0x8f81fe9c                genimg_get_type_id
                0x8f81febc                genimg_get_arch_id
                0x8f81fedc                genimg_get_os_id
                0x8f81fefc                genimg_get_format
                0x8f81ff30                image_multi_getimg
                0x8f81fff0                genimg_print_size
                0x8f820020                memmove_wd
                0x8f820034                getenv_bootm_low
                0x8f820068                getenv_yesno
                0x8f820090                getenv_bootm_size
                0x8f8200c4                image_check_hcrc
                0x8f820128                image_check_dcrc
                0x8f820188                image_print_contents
                0x8f820360                boot_get_ramdisk
 .text          0x8f8205fc      0xd30 common/libcommon.a(kgdb.o)
                0x8f8206c0                do_kgdb
                0x8f8206f8                breakpoint
                0x8f820858                kgdb_output_string
                0x8f820894                kgdb_error
                0x8f8208c0                kgdb_init
 .text          0x8f82132c       0x40 common/libcommon.a(kgdb_stubs.o)
                0x8f82132c                kgdb_flush_cache_all
                0x8f82135c                kgdb_flush_cache_range
 .text          0x8f82136c      0xf3c common/libcommon.a(lcd_aml.o)
                0x8f821514                lcd_setmem
                0x8f821700                lcd_display_bitmap
                0x8f821b78                lcd_drawchars
                0x8f821dac                lcd_init
                0x8f821e90                drv_lcd_init
                0x8f821f00                lcd_putc
                0x8f822104                lcd_puts_line
                0x8f8221a0                lcd_printf
                0x8f822260                lcd_puts
 .text          0x8f8222a8      0xb1c common/libcommon.a(main.o)
                0x8f8222a8                __show_boot_progress
                0x8f8222a8                show_boot_progress
                0x8f8222ac                parse_line
                0x8f822364                do_run
                0x8f8223e8                run_command
                0x8f8229e8                readline_into_buffer
                0x8f822c54                readline
                0x8f822c70                main_loop
 .text          0x8f822dc4      0x2f0 common/libcommon.a(s_record.o)
                0x8f822e4c                srec_decode
 .text          0x8f8230b4      0x188 common/libcommon.a(stdio.o)
                0x8f8230b4                stdio_get_list
                0x8f8230c0                stdio_clone
                0x8f823110                stdio_register
                0x8f823154                stdio_init
                0x8f8231e0                stdio_get_by_name
 .text          0x8f82323c     0x1990 common/libcommon.a(usb.o)
                0x8f82323c                usb_disable_asynch
                0x8f823254                usb_maxpacket
                0x8f823310                usb_set_maxpacket
                0x8f823394                usb_get_dev_index
                0x8f8233cc                usb_hub_reset
                0x8f8233e0                usb_hub_allocate
                0x8f82342c                usb_alloc_new_device
                0x8f8234e0                usb_parse_config
                0x8f82367c                usb_submit_int_msg
                0x8f823698                usb_stop
                0x8f8236e4                wait_ms
                0x8f823708                usb_bulk_msg
                0x8f82377c                usb_control_msg
                0x8f82389c                usb_get_port_status
                0x8f8238f4                usb_get_hub_status
                0x8f823948                usb_set_port_feature
                0x8f8239fc                usb_clear_port_feature
                0x8f823b38                usb_clear_hub_feature
                0x8f823b8c                usb_get_hub_descriptor
                0x8f823be8                usb_get_string
                0x8f823da0                usb_string
                0x8f823ec8                usb_get_class_descriptor
                0x8f823f2c                usb_get_report
                0x8f823f90                usb_set_idle
                0x8f823fec                usb_set_protocol
                0x8f824044                usb_set_configuration
                0x8f8240b4                usb_set_interface
                0x8f824198                usb_set_address
                0x8f8241dc                usb_get_descriptor
                0x8f824238                usb_get_configuration_no
                0x8f8242e4                usb_clear_halt
                0x8f824394                usb_hub_port_connect_change
                0x8f8244cc                usb_hub_configure
                0x8f824724                usb_hub_probe
                0x8f8247a4                usb_new_device
                0x8f824aa8                usb_scan_devices
                0x8f824b30                usb_init
 .text          0x8f824bcc     0x185c common/libcommon.a(usb_storage.o)
                0x8f824bcc                usb_stor_get_dev
                0x8f824c1c                usb_show_progress
                0x8f824d14                usb_stor_get_info
                0x8f824fdc                usb_storage_probe
                0x8f82526c                usb_stor_BBB_clear_endpt_stall
                0x8f82548c                usb_stor_write
                0x8f825708                usb_stor_read
                0x8f825984                usb_stor_scan
                0x8f825af8                usb_stor_CB_comdat
                0x8f825d5c                usb_stor_BBB_comdat
                0x8f825e40                usb_stor_BBB_transport
                0x8f8260a0                usb_stor_CBI_get_status
                0x8f82619c                usb_stor_CB_transport
                0x8f8263b0                usb_stor_info
 .text          0x8f826428      0xb74 common/libcommon.a(xyzModem.o)
                0x8f826428                parse_num
                0x8f826598                xyzModem_error
                0x8f826634                xyzModem_stream_close
                0x8f826690                CYGACC_COMM_IF_PUTC
                0x8f8266a0                CYGACC_COMM_IF_GETC_TIMEOUT
                0x8f82672c                xyzModem_stream_terminate
                0x8f826b70                xyzModem_stream_read
                0x8f826e14                xyzModem_stream_open
 .text          0x8f826f9c     0x1d94 board/amlogic/8726m_mid_refb04/lib8726m_mid_refb04.a(8726m_mid_refb04.o)
                0x8f827038                ISO_88591_20GetCharacterFontBit
                0x8f82713c                ISO_88591_24GetCharacterFontBit
                0x8f827310                misc_init_r
                0x8f827318                set_muxconf_regs
                0x8f82731c                get_board_rev
                0x8f827338                touch_init
                0x8f82733c                key_init
                0x8f827344                get_gpio_key
                0x8f82734c                get_special_key
                0x8f8273d0                boot_autoscript
                0x8f82748c                logo_show_n
                0x8f82750c                logo_show
                0x8f82751c                display_messge
                0x8f82754c                oem_show_engineering_board
                0x8f827584                image_check_name
                0x8f827628                oem_check_img
                0x8f827884                get_adc_key
                0x8f827940                oem_getc
                0x8f827a5c                oem_wait_key_idle
                0x8f827bb0                oem_get_key_pressed
                0x8f827d1c                prepare_update
                0x8f827e80                oem_determinate_upgrade
                0x8f828150                oem_get_key_release
                0x8f828170                switch_boot_mode
                0x8f828bec                board_mmc_init
                0x8f828d04                board_init
 .text          0x8f828d30      0x47c board/amlogic/8726m_mid_refb04/lib8726m_mid_refb04.a(lcd.o)
                0x8f828d30                video_dac_enable
                0x8f828d50                video_dac_disable
                0x8f828f4c                power_off_backlight
                0x8f828f90                power_on_backlight
                0x8f829088                lcd_disable
                0x8f82909c                osd_hw_setup
                0x8f82910c                lcd_enable
 .text          0x8f8291ac      0x40c board/amlogic/8726m_mid_refb04/lib8726m_mid_refb04.a(saradc.o)
                0x8f8291ac                saradc_enable
                0x8f8293a0                saradc_disable
                0x8f8293c8                get_adc_sample
 .text          0x8f8295b8      0x278 board/amlogic/8726m_mid_refb04/lib8726m_mid_refb04.a(powerkey.o)
                0x8f8295b8                powerkey_init
                0x8f8295f0                powerkey_scan
                0x8f829634                power_unhold
                0x8f829704                power_hold
 .text          0x8f829830      0xe78 board/amlogic/8726m_mid_refb04/lib8726m_mid_refb04.a(upgrade.o)
                0x8f829830                upgrade_env
                0x8f829920                start_kernel
                0x8f829aa4                upgrade_boot
                0x8f829f0c                upgrade_logo
                0x8f82a1c4                upgrade_image
                0x8f82a4cc                get_logo_file
 .text          0x8f82a6a8      0x234 board/amlogic/8726m_mid_refb04/lib8726m_mid_refb04.a(battery_charging.o)
                0x8f82a6a8                ac_connected
                0x8f82a6bc                get_bat_capacity
 .text          0x8f82a8dc      0x338 board/amlogic/8726m_mid_refb04/lib8726m_mid_refb04.a(debug.o)
                0x8f82a8dc                determinate_load
                0x8f82a938                debug_image
 .text          0x8f82ac14       0x4c lib/libgeneric.a(crc16.o)
                0x8f82ac14                cyg_crc16
 .text          0x8f82ac60      0x108 lib/libgeneric.a(crc32.o)
                0x8f82ac60                crc32_no_comp
                0x8f82ad48                crc32
                0x8f82ad5c                crc32_wd
 .text          0x8f82ad68        0x0 lib/libgeneric.a(ctype.o)
 .text          0x8f82ad68      0x3c0 lib/libgeneric.a(display_options.o)
                0x8f82ad68                print_size
                0x8f82af14                display_options
                0x8f82af34                print_buffer
 .text          0x8f82b128      0x11c lib/libgeneric.a(div64.o)
                0x8f82b128                __div64_32
 .text          0x8f82b244      0x1f0 lib/libgeneric.a(gunzip.o)
                0x8f82b244                zunzip
                0x8f82b33c                gunzip
                0x8f82b40c                zfree
                0x8f82b41c                zalloc
 .text          0x8f82b434       0x8c lib/libgeneric.a(net_utils.o)
                0x8f82b434                string_to_ip
 .text          0x8f82b4c0      0x734 lib/libgeneric.a(string.o)
                0x8f82b4c0                strcpy
                0x8f82b4dc                strncpy
                0x8f82b504                strcat
                0x8f82b53c                strncat
                0x8f82b5a4                strcmp
                0x8f82b5d4                strncmp
                0x8f82b650                strchr
                0x8f82b68c                strlen
                0x8f82b6b0                strrchr
                0x8f82b6e8                strnlen
                0x8f82b730                strspn
                0x8f82b7a0                strpbrk
                0x8f82b808                strtok
                0x8f82b894                strsep
                0x8f82b8cc                strswab
                0x8f82b920                memset
                0x8f82b998                bcopy
                0x8f82b9c4                memcpy
                0x8f82ba40                memmove
                0x8f82ba94                memcmp
                0x8f82bae4                memscan
                0x8f82bb18                strstr
                0x8f82bb88                memchr
                0x8f82bbb4                strdup
 .text          0x8f82bbf4      0x10c lib/libgeneric.a(time.o)
                0x8f82bbf4                udelay
                0x8f82bc24                tick_delay
                0x8f82bc88                sdelay
                0x8f82bcdc                mdelay
 .text          0x8f82bd00     0x10a4 lib/libgeneric.a(vsprintf.o)
                0x8f82bd00                simple_strtoul
                0x8f82bdf0                simple_strtol
                0x8f82be18                ustrtoul
                0x8f82bf0c                simple_strtoull
                0x8f82c070                panic
                0x8f82c6c0                vsprintf
                0x8f82cd78                sprintf
 .text          0x8f82cda4     0x2e3c lib/libgeneric.a(zlib.o)
                0x8f82cda4                inflate_fast
                0x8f82d454                inflate_table
                0x8f82dae0                inflateReset
                0x8f82db78                inflateInit2_
                0x8f82dc90                inflateInit_
                0x8f82dcac                inflateEnd
                0x8f82dd30                adler32
                0x8f82e084                zcfree
                0x8f82e094                zcalloc
                0x8f82e0a4                inflate
 .text          0x8f82fbe0      0x110 lib/lzma/liblzma.a(LzmaTools.o)
                0x8f82fbe0                lzmaBuffToBuffDecompress
 .text          0x8f82fcf0     0x1f44 lib/lzma/liblzma.a(LzmaDec.o)
                0x8f8312d4                LzmaDec_InitDicAndState
                0x8f831314                LzmaDec_Init
                0x8f831330                LzmaDec_FreeProbs
                0x8f831378                LzmaDec_Free
                0x8f831398                LzmaProps_Decode
                0x8f8314a8                LzmaDec_AllocateProbs
                0x8f831500                LzmaDec_Allocate
                0x8f8315b4                LzmaDec_DecodeToDic
                0x8f831a2c                LzmaDecode
                0x8f831b04                LzmaDec_DecodeToBuf
 .text          0x8f831c34      0x830 lib/lzo/liblzo.a(lzo1x_decompress.o)
                0x8f831c34                lzo1x_decompress_safe
                0x8f8322c0                lzop_decompress
 .text          0x8f832464       0x90 arch/arm/cpu/aml_meson/m1/libm1.a(timer.o)
                0x8f832464                timer_init
                0x8f832484                get_timer
                0x8f832498                set_timer
                0x8f8324b0                reset_timer
                0x8f8324c0                __udelay
 .text          0x8f8324f4       0x18 arch/arm/cpu/aml_meson/m1/libm1.a(soc.o)
                0x8f8324f4                reset_cpu
 .text          0x8f83250c       0x2c arch/arm/cpu/aml_meson/m1/libm1.a(board.o)
                0x8f83250c                dram_init
 .text          0x8f832538      0x19c arch/arm/cpu/aml_meson/m1/libm1.a(sdio.o)
                0x8f832538                cpu_sdio_get
                0x8f832568                cpu_sdio_init
 .text          0x8f8326d4      0x3b0 arch/arm/cpu/aml_meson/m1/libm1.a(serial.o)
                0x8f8326d4                serial_set_pin_port
                0x8f8326d4                __serial_set_pin_port
                0x8f832724                serial_putc_port
                0x8f832780                serial_tstc_port
                0x8f8327a4                serial_getc_port
                0x8f832810                serial_puts_port
                0x8f832840                serial_putdata_port
                0x8f83287c                serial_putc
                0x8f832890                serial_tstc
                0x8f8328a0                serial_getc
                0x8f8328b0                serial_puts
                0x8f8328c4                serial_putdata
                0x8f8328e0                getDebugChar
                0x8f8328f0                putDebugChar
                0x8f832904                putDebugStr
                0x8f832918                serial_setbrg_port
                0x8f83296c                serial_setbrg
                0x8f83297c                serial_init_port
                0x8f832a64                kgdb_serial_init
                0x8f832a74                serial_init
 .text          0x8f832a84      0x110 arch/arm/cpu/aml_meson/m1/libm1.a(clock.o)
                0x8f832a84                get_cpu_clk
                0x8f832a98                clk_util_clk_msr
                0x8f832b14                get_clk81
 .text          0x8f832b94      0x30c arch/arm/cpu/aml_meson/m1/libm1.a(pinmux.o)
                0x8f832b94                clear_mio_mux
                0x8f832c14                set_mio_mux
                0x8f832c94                clearall_pinmux
                0x8f832cbc                eth_clearall_pinmux
                0x8f832cf0                eth_set_pinmux
 .text          0x8f832ea0      0x254 arch/arm/cpu/aml_meson/m1/libm1.a(gpio.o)
                0x8f832ea0                set_gpio_mode
                0x8f832edc                get_gpio_mode
                0x8f832f08                set_gpio_val
                0x8f832f4c                get_gpio_val
                0x8f832f7c                gpio_enable_edge_int
                0x8f832fdc                gpio_enable_level_int
                0x8f833030                gpio_enable_int_filter
                0x8f833050                gpio_is_valid
                0x8f833058                gpio_request
                0x8f833060                gpio_free
                0x8f833064                gpio_direction_input
                0x8f833084                gpio_direction_output
                0x8f8330bc                gpio_set_value
                0x8f8330dc                gpio_get_value
 .text          0x8f8330f4      0x570 arch/arm/cpu/aml_meson/m1/libm1.a(tcon.o)
                0x8f833174                tcon_remove
                0x8f8335a8                tcon_probe
 .text          0x8f833664      0x7b8 arch/arm/cpu/aml_meson/m1/libm1.a(osd_hw.o)
                0x8f8338dc                osd_init_hw
                0x8f833a04                osd_setup
 .text          0x8f833e1c      0x220 arch/arm/cpu/aml_meson/m1/libm1.a(canvas.o)
                0x8f833e1c                canvas_config
                0x8f833ea4                canvas_read
                0x8f833edc                canvas_copy
                0x8f833fac                canvas_update_addr
                0x8f834028                canvas_get_addr
 .text          0x8f83403c      0x348 arch/arm/lib/libarm.a(bootm.o)
                0x8f83403c                setup_revision_tag
                0x8f834084                do_bootm_linux
 .text          0x8f834384       0x2c arch/arm/lib/libarm.a(reset.o)
                0x8f834384                do_reset
 .text          0x8f8343b0      0x37c arch/arm/lib/libarm.a(kgdb.o)
                0x8f8343b0                kgdb_breakpoint
                0x8f8343b8                kgdb_setjmp
                0x8f8343d4                kgdb_longjmp
                0x8f8343e8                kgdb_trap
                0x8f8343f0                kgdb_enter
                0x8f83440c                kgdb_exit
                0x8f834410                kgdb_interruptible
                0x8f834414                arch_kgdb_remove_sw_break
                0x8f834430                arch_kgdb_set_sw_break
                0x8f834458                kgdb_putregs
                0x8f834510                kgdb_putreg
                0x8f834664                kgdb_getregs
 .text          0x8f83472c     0x1758 fs/fat/libfat.a(fat.o)
                0x8f834760                disk_read
                0x8f834bf4                file_fat_detectfs
                0x8f8350e4                do_fat_read
                0x8f835c40                file_fat_read
                0x8f835c78                file_fat_ls
                0x8f835c90                fat_register_device
 .text          0x8f835e84     0x102c fs/ext2/libext2fs.a(ext2fs.o)
                0x8f835f84                ext2fs_mount
                0x8f836054                ext2fs_free_node
                0x8f83607c                ext2fs_close
                0x8f836168                ext2fs_read_file
                0x8f8366b4                ext2fs_read
                0x8f836a34                ext2fs_find_file1
                0x8f836cec                ext2fs_find_file
                0x8f836d74                ext2fs_open
                0x8f836e28                ext2fs_ls
 .text          0x8f836eb0      0x274 fs/ext2/libext2fs.a(dev.o)
                0x8f836eb0                ext2fs_devread
                0x8f8370bc                ext2fs_set_blk_dev
 .text          0x8f837124     0x10a4 fs/ubifs/libubifs.a(ubifs.o)
                0x8f83713c                ubifs_compressors_init
                0x8f8375c4                ubifs_ls
                0x8f837c58                ubifs_decompress
                0x8f837e70                ubifs_load
 .text          0x8f8381c8     0x15e8 fs/ubifs/libubifs.a(super.o)
                0x8f838290                ubifs_iput
                0x8f8382bc                iget_locked
                0x8f838308                ubifs_umount
                0x8f83838c                ubifs_init
                0x8f838398                iput
                0x8f838424                ubifs_iget
                0x8f83889c                sget
                0x8f8396d0                ubifs_mount
 .text          0x8f8397b0      0x8e0 fs/ubifs/libubifs.a(sb.o)
                0x8f839844                ubifs_read_sb_node
                0x8f8398b8                ubifs_read_superblock
 .text          0x8f83a090      0xca0 fs/ubifs/libubifs.a(master.o)
                0x8f83a090                ubifs_read_master
 .text          0x8f83ad30     0x180c fs/ubifs/libubifs.a(lpt.o)
                0x8f83ad30                ubifs_unpack_bits
                0x8f83ae88                ubifs_add_lpt_dirt
                0x8f83aebc                ubifs_add_nnode_dirt
                0x8f83b094                ubifs_lpt_init
                0x8f83b2c0                ubifs_unpack_nnode
                0x8f83b38c                ubifs_read_nnode
                0x8f83b5d8                ubifs_get_nnode
                0x8f83b618                ubifs_get_pnode
                0x8f83bac8                ubifs_lpt_lookup
                0x8f83bb7c                ubifs_calc_lpt_geom
                0x8f83c314                ubifs_lpt_lookup_dirty
 .text          0x8f83c53c      0x294 fs/ubifs/libubifs.a(lpt_commit.o)
                0x8f83c53c                ubifs_lpt_free
 .text          0x8f83c7d0      0x5c0 fs/ubifs/libubifs.a(scan.o)
                0x8f83c7d0                ubifs_end_scan
                0x8f83c7ec                ubifs_scan_destroy
                0x8f83c838                ubifs_scanned_corruption
                0x8f83c868                ubifs_add_snod
                0x8f83c948                ubifs_start_scan
                0x8f83ca20                ubifs_scan_a_node
                0x8f83cbb0                ubifs_scan
 .text          0x8f83cd90      0xb58 fs/ubifs/libubifs.a(lprops.o)
                0x8f83cff4                ubifs_add_to_cat
                0x8f83d2b8                ubifs_replace_cat
                0x8f83d31c                ubifs_categorize_lprops
                0x8f83d3b8                ubifs_ensure_cat
                0x8f83d428                ubifs_fast_find_free
                0x8f83d448                ubifs_fast_find_empty
                0x8f83d46c                ubifs_fast_find_freeable
                0x8f83d488                ubifs_fast_find_frdi_idx
                0x8f83d4ac                ubifs_read_one_lp
                0x8f83d4dc                ubifs_get_lp_stats
                0x8f83d4fc                ubifs_change_lp
                0x8f83d81c                ubifs_update_one_lp
                0x8f83d884                ubifs_change_one_lp
 .text          0x8f83d8e8     0x2f68 fs/ubifs/libubifs.a(tnc.o)
                0x8f83db34                destroy_old_idx
                0x8f83e1dc                insert_old_idx_znode
                0x8f83e274                ubifs_lookup_level0
                0x8f83e428                ubifs_tnc_next_ent
                0x8f83e55c                ubifs_tnc_get_bu_keys
                0x8f83edd8                ubifs_tnc_locate
                0x8f83ef14                ubifs_tnc_lookup_nm
                0x8f83efec                ubifs_tnc_bulk_read
                0x8f83fc00                ubifs_tnc_add
                0x8f83fcb8                ubifs_tnc_replace
                0x8f840230                ubifs_tnc_remove
                0x8f840274                ubifs_tnc_remove_range
                0x8f840474                ubifs_tnc_remove_nm
                0x8f840538                ubifs_tnc_remove_ino
                0x8f8406ac                ubifs_tnc_add_nm
 .text          0x8f840850      0x7e0 fs/ubifs/libubifs.a(tnc_misc.o)
                0x8f840850                ubifs_search_zbranch
                0x8f8408e4                ubifs_tnc_read_node
                0x8f840974                ubifs_load_znode
                0x8f840d68                ubifs_tnc_postorder_first
                0x8f840ddc                ubifs_tnc_postorder_next
                0x8f840e54                ubifs_tnc_levelorder_next
 .text          0x8f841030       0x44 fs/ubifs/libubifs.a(crc16.o)
                0x8f841030                crc16
 .text          0x8f841074      0x124 fs/ubifs/libubifs.a(budget.o)
                0x8f841074                ubifs_reported_space
                0x8f8410fc                ubifs_calc_min_idx_lebs
 .text          0x8f841198      0x50c fs/ubifs/libubifs.a(orphan.o)
                0x8f841198                ubifs_clear_orphans
                0x8f841230                ubifs_mount_orphans
 .text          0x8f8416a4     0x16e4 fs/ubifs/libubifs.a(recovery.o)
                0x8f8417e8                ubifs_recover_size
                0x8f841a4c                ubifs_recover_size_accum
                0x8f841c18                ubifs_recover_leb
                0x8f842174                ubifs_write_rcvrd_mst_node
                0x8f842564                ubifs_recover_master_node
                0x8f842750                ubifs_recover_log_leb
                0x8f842b00                ubifs_recover_inl_heads
                0x8f842b3c                ubifs_clean_lebs
 .text          0x8f842d88     0x147c fs/ubifs/libubifs.a(replay.o)
                0x8f842ed0                ubifs_validate_entry
                0x8f84301c                ubifs_replay_journal
 .text          0x8f844204      0x618 fs/ubifs/libubifs.a(io.o)
                0x8f844204                ubifs_ro_mode
                0x8f844248                ubifs_check_node
                0x8f84444c                ubifs_read_node
                0x8f8445a0                ubifs_pad
                0x8f844698                ubifs_prepare_node
 .text          0x8f84481c       0xfc fs/ubifs/libubifs.a(log.o)
                0x8f84481c                ubifs_search_bud
                0x8f84485c                ubifs_add_bud
 .text          0x8f844918      0x3c8 disk/libdisk.a(part.o)
                0x8f844918                print_part
                0x8f844a14                dev_print
                0x8f844c34                get_partition_info
                0x8f844c58                init_part
                0x8f844c78                get_dev
 .text          0x8f844ce0      0x5d4 disk/libdisk.a(part_dos.o)
                0x8f844ce0                test_part_dos
                0x8f845008                get_partition_info_dos
                0x8f845288                print_part_dos
 .text          0x8f8452b4      0xb08 drivers/mmc/libmmc.a(aml_sd_mmc.o)
                0x8f8452b4                dump_sdio_reg
                0x8f845308                aml_sd_send_cmd
                0x8f845c24                aml_sd_cfg_swth
                0x8f845c98                aml_sd_init
 .text          0x8f845dbc      0x22c drivers/mtd/libmtd.a(mtdcore.o)
                0x8f845dbc                get_mtd_device
                0x8f845e34                del_mtd_device
                0x8f845e90                put_mtd_device
                0x8f845ed8                add_mtd_device
                0x8f845f74                get_mtd_device_nm
 .text          0x8f845fe8      0xfc8 drivers/mtd/libmtd.a(mtdpart.o)
                0x8f846328                mtd_erase_callback
                0x8f8466b8                del_mtd_partitions
                0x8f84674c                add_mtd_partitions
 .text          0x8f846fb0     0x1ce4 drivers/mtd/nand/libnand.a(nand_util.o)
                0x8f84704c                nand_write_skip_bad
                0x8f8474e8                nand_raw_read_nand_dev
                0x8f847840                nand_erase_opts
                0x8f847c34                nand_boot_write
                0x8f847d40                nand_rom_read
                0x8f847f7c                nand_rom_write
                0x8f848230                romboot_nand_write
                0x8f8486d4                nand_read_skip_bad
                0x8f848bf0                nand_boot_read
 .text          0x8f848c94      0xe20 drivers/mtd/ubi/libubi.a(build.o)
                0x8f848c94                ubi_get_device
                0x8f848cb8                ubi_put_device
                0x8f848cc8                ubi_get_by_major
                0x8f848d34                ubi_major2num
                0x8f848d94                ubi_mtd_param_parse
                0x8f848ffc                ubi_detach_mtd_dev
                0x8f8490cc                ubi_exit
                0x8f849118                ubi_attach_mtd_dev
                0x8f8498f4                ubi_init
 .text          0x8f849ab4     0x112c drivers/mtd/ubi/libubi.a(vtbl.o)
                0x8f84a1d0                ubi_read_volume_table
                0x8f84aaf8                ubi_change_vtbl_record
 .text          0x8f84abe0      0xa54 drivers/mtd/ubi/libubi.a(vmt.o)
                0x8f84abe0                ubi_free_volume
                0x8f84abf4                ubi_add_volume
                0x8f84ac5c                ubi_resize_volume
                0x8f84af70                ubi_remove_volume
                0x8f84b0b4                ubi_create_volume
 .text          0x8f84b634      0x834 drivers/mtd/ubi/libubi.a(upd.o)
                0x8f84b634                ubi_more_leb_change_data
                0x8f84b934                ubi_more_update_data
                0x8f84bbe0                ubi_start_leb_change
                0x8f84bccc                ubi_start_update
 .text          0x8f84be68      0x8f4 drivers/mtd/ubi/libubi.a(kapi.o)
                0x8f84be68                ubi_get_volume_info
                0x8f84bee4                ubi_is_mapped
                0x8f84bf34                ubi_leb_map
                0x8f84bfe8                ubi_leb_write
                0x8f84c0e8                ubi_leb_unmap
                0x8f84c15c                ubi_leb_erase
                0x8f84c1e0                ubi_leb_change
                0x8f84c2cc                ubi_leb_read
                0x8f84c404                ubi_close_volume
                0x8f84c470                ubi_get_device_info
                0x8f84c4d0                ubi_open_volume
                0x8f84c680                ubi_open_volume_nm
 .text          0x8f84c75c     0x1d88 drivers/mtd/ubi/libubi.a(eba.o)
                0x8f84c808                ubi_eba_close
                0x8f84c898                ubi_eba_init_scan
                0x8f84cd0c                ubi_eba_copy_leb
                0x8f84d118                ubi_eba_unmap_leb
                0x8f84d194                ubi_eba_read_leb
                0x8f84d444                ubi_eba_write_leb_st
                0x8f84d8e4                ubi_eba_write_leb
                0x8f84e08c                ubi_eba_atomic_leb_change
 .text          0x8f84e4e4      0xed8 drivers/mtd/ubi/libubi.a(io.o)
                0x8f84e530                ubi_io_mark_bad
                0x8f84e5b8                ubi_io_is_bad
                0x8f84e618                ubi_io_write
                0x8f84e6b8                ubi_io_write_vid_hdr
                0x8f84e760                ubi_io_write_ec_hdr
                0x8f84e874                ubi_io_read
                0x8f84e97c                ubi_io_read_vid_hdr
                0x8f84edc0                ubi_io_read_ec_hdr
                0x8f84f1dc                ubi_io_sync_erase
 .text          0x8f84f3bc     0x1558 drivers/mtd/ubi/libubi.a(wl.o)
                0x8f84f528                ubi_wl_close
                0x8f84f7ec                ubi_wl_flush
                0x8f84f81c                ubi_thread
                0x8f84fa08                ubi_wl_init_scan
                0x8f850154                ubi_wl_scrub_peb
                0x8f850250                ubi_wl_put_peb
                0x8f850784                ubi_wl_get_peb
 .text          0x8f850914     0x17d0 drivers/mtd/ubi/libubi.a(scan.o)
                0x8f850914                ubi_scan_find_sv
                0x8f850968                ubi_scan_find_seb
                0x8f8509bc                ubi_scan_destroy_si
                0x8f850dfc                ubi_scan_rm_volume
                0x8f850e6c                ubi_scan_add_used
                0x8f85178c                ubi_scan
                0x8f851eac                ubi_scan_erase_peb
                0x8f851fb8                ubi_scan_get_free_peb
 .text          0x8f8520e4       0xf0 drivers/mtd/ubi/libubi.a(crc32.o)
                0x8f8520e4                crc32_le
 .text          0x8f8521d4      0x144 drivers/mtd/ubi/libubi.a(misc.o)
                0x8f8521d4                ubi_calc_data_len
                0x8f85221c                ubi_calculate_reserved
                0x8f85224c                ubi_check_volume
 .text          0x8f852318      0x468 drivers/mtd/spi/libspi_flash.a(spi_flash_aml.o)
                0x8f852318                spi_flash_free
                0x8f852334                spi_flash_adr_write
                0x8f852384                spi_flash_cmd
                0x8f852444                spi_flash_probe
                0x8f852560                spi_flash_read_aml
                0x8f852694                spi_flash_write_aml
 .text          0x8f852780      0x2b8 drivers/mtd/spi/libspi_flash.a(macronix.o)
                0x8f852780                spi_flash_probe_mxic
                0x8f8528f4                mxic_erase
 .text          0x8f852a38      0x27c drivers/mtd/spi/libspi_flash.a(sst.o)
                0x8f852a38                spi_flash_probe_sst
                0x8f852b70                sst_erase
 .text          0x8f852cb4      0x2b8 drivers/mtd/spi/libspi_flash.a(winbond.o)
                0x8f852cb4                spi_flash_probe_winbond
                0x8f852e28                winbond_erase
 .text          0x8f852f6c      0x2cc drivers/spi/libspi.a(amlogic_spi_a.o)
                0x8f852f6c                spi_cs_is_valid
                0x8f852f74                spi_cs_activate
                0x8f852f78                spi_cs_deactivate
                0x8f852f7c                spi_init
                0x8f852f94                spi_claim_bus
                0x8f852fc0                spi_release_bus
                0x8f852fd8                spi_xfer
                0x8f8531f0                spi_free_slave
                0x8f8531fc                spi_setup_slave
 .text          0x8f853238     0x133c drivers/usb/host/libusb_host.a(dwc_otg_hcd.o)
                0x8f853238                dwc_udelay
                0x8f85323c                dwc_otg_enable_global_interrupts
                0x8f8532ac                dwc_otg_disable_host_interrupts
                0x8f8532c8                dwc_otg_hcd_stop
                0x8f853300                submit_int_msg
                0x8f853324                dwc_otg_enable_host_interrupts
                0x8f853354                usb_lowlevel_stop
                0x8f853380                dwc_otg_flush_rx_fifo
                0x8f853410                dwc_otg_flush_tx_fifo
                0x8f853494                dwc_otg_core_host_init
                0x8f853698                dwc_otg_core_reset
                0x8f853768                dwc_otg_core_init
                0x8f853a50                dwc_otg_hc_cleanup
                0x8f853a84                usb_lowlevel_init
                0x8f85428c                submit_bulk_msg
                0x8f8543c8                submit_control_msg
 .text          0x8f854574      0x730 common/libcommon.a(devfont.o)
                0x8f854574                is_rect_invalid
                0x8f8545b4                RegisterFont
                0x8f85465c                UnregisterFont
                0x8f854710                GetCharWidth
                0x8f85473c                GetCharHeight
                0x8f854750                SetFont
                0x8f8547d0                GetTextSize
                0x8f8548a8                DrawRect
                0x8f854958                DrawPixel
                0x8f8549b0                DrawFont
                0x8f854acc                ClearLine
                0x8f854b5c                DrawText
                0x8f854c44                AsciiPrintf
 .text          0x8f854ca4      0x7cc lib/libgeneric.a(rbtree.o)
                0x8f854db4                rb_insert_color
                0x8f854f14                rb_erase
                0x8f855304                rb_first
                0x8f855324                rb_last
                0x8f855344                rb_next
                0x8f8553a0                rb_prev
                0x8f8553fc                rb_replace_node
 .text          0x8f855470       0x24 arch/arm/cpu/aml_meson/libaml_meson.a(cpu.o)
                0x8f855470                cleanup_before_linux
 .text          0x8f855494      0x254 arch/arm/cpu/aml_meson/m1/libm1.a(usb.o)
                0x8f855494                set_usb_phy_reset
                0x8f855580                board_usb_stop
                0x8f8555a0                board_usb_init
                0x8f8555b0                set_usb_phy_clock
                0x8f8556a4                board_usb_start
 .text          0x8f8556e8      0x114 /opt/toolchains/arm-mlogic/bin/../lib/gcc/arm-none-eabi/4.4.1/libgcc.a(_udivsi3.o)
                0x8f8556e8                __udivsi3
                0x8f8556e8                __aeabi_uidiv
                0x8f8557dc                __aeabi_uidivmod
 .text          0x8f8557fc      0x148 /opt/toolchains/arm-mlogic/bin/../lib/gcc/arm-none-eabi/4.4.1/libgcc.a(_divsi3.o)
                0x8f8557fc                __aeabi_idiv
                0x8f8557fc                __divsi3
                0x8f855924                __aeabi_idivmod
 .text          0x8f855944        0x4 /opt/toolchains/arm-mlogic/bin/../lib/gcc/arm-none-eabi/4.4.1/libgcc.a(_dvmd_tls.o)
                0x8f855944                __aeabi_ldiv0
                0x8f855944                __aeabi_idiv0
 .text          0x8f855948       0x1c /opt/toolchains/arm-mlogic/bin/../lib/gcc/arm-none-eabi/4.4.1/libgcc.a(_lshrdi3.o)
                0x8f855948                __aeabi_llsr
                0x8f855948                __lshrdi3
 .text          0x8f855964       0x1c /opt/toolchains/arm-mlogic/bin/../lib/gcc/arm-none-eabi/4.4.1/libgcc.a(_ashldi3.o)
                0x8f855964                __ashldi3
                0x8f855964                __aeabi_llsl
 .text          0x8f855980       0x44 /opt/toolchains/arm-mlogic/bin/../lib/gcc/arm-none-eabi/4.4.1/libgcc.a(_aeabi_ldivmod.o)
                0x8f855980                __aeabi_ldivmod
 .text          0x8f8559c4       0x3c /opt/toolchains/arm-mlogic/bin/../lib/gcc/arm-none-eabi/4.4.1/libgcc.a(_aeabi_uldivmod.o)
                0x8f8559c4                __aeabi_uldivmod
 .text          0x8f855a00       0x88 /opt/toolchains/arm-mlogic/bin/../lib/gcc/arm-none-eabi/4.4.1/libgcc.a(bpabi.o)
                0x8f855a00                __gnu_uldivmod_helper
                0x8f855a44                __gnu_ldivmod_helper
 .text          0x8f855a88      0x490 /opt/toolchains/arm-mlogic/bin/../lib/gcc/arm-none-eabi/4.4.1/libgcc.a(_divdi3.o)
                0x8f855a88                __divdi3
 .text          0x8f855f18      0x43c /opt/toolchains/arm-mlogic/bin/../lib/gcc/arm-none-eabi/4.4.1/libgcc.a(_udivdi3.o)
                0x8f855f18                __udivdi3
 .text          0x8f856354       0x48 /opt/toolchains/arm-mlogic/bin/../lib/gcc/arm-none-eabi/4.4.1/libgcc.a(_clzsi2.o)
                0x8f856354                __clzsi2

.glue_7         0x8f85639c        0x0
 .glue_7        0x00000000        0x0 linker stubs

.glue_7t        0x8f85639c        0x0
 .glue_7t       0x00000000        0x0 linker stubs

.vfp11_veneer   0x8f85639c        0x0
 .vfp11_veneer  0x00000000        0x0 linker stubs

.v4_bx          0x8f85639c        0x0
 .v4_bx         0x00000000        0x0 linker stubs
                0x8f85639c                . = ALIGN (0x4)

.rodata         0x8f85639c    0x13adc
 *(SORT(.rodata*))
 .rodata        0x8f85639c       0x34 arch/arm/lib/libarm.a(board.o)
                0x8f85639c                version_string
 .rodata        0x8f8563d0       0x80 arch/arm/lib/libarm.a(interrupts.o)
 .rodata        0x8f856450      0x184 drivers/i2c/libi2c.a(aml_i2c.o)
                0x8f85659c                aml_i2c_reg_start
 .rodata        0x8f8565d4       0x64 drivers/mmc/libmmc.a(mmc.o)
 .rodata        0x8f856638       0x74 drivers/mtd/nand/libnand.a(aml_nand.o)
 .rodata        0x8f8566ac       0x5c drivers/mtd/nand/libnand.a(nand_base.o)
 .rodata        0x8f856708      0x100 drivers/mtd/nand/libnand.a(nand_ecc.o)
 .rodata        0x8f856808       0x40 drivers/rtc/librtc.a(rtc-lib.o)
 .rodata        0x8f856848       0x4c common/libcommon.a(cmd_bootm.o)
 .rodata        0x8f856894       0x44 common/libcommon.a(cmd_mtdparts.o)
 .rodata        0x8f8568d8       0x18 common/libcommon.a(cmd_nvedit.o)
 .rodata        0x8f8568f0       0x24 common/libcommon.a(cmd_ubi.o)
 .rodata        0x8f856914       0x14 common/libcommon.a(kgdb.o)
 .rodata        0x8f856928     0x100c common/libcommon.a(lcd_aml.o)
 .rodata        0x8f857934      0xf34 board/amlogic/8726m_mid_refb04/lib8726m_mid_refb04.a(8726m_mid_refb04.o)
 .rodata        0x8f858868      0x4a8 board/amlogic/8726m_mid_refb04/lib8726m_mid_refb04.a(lcd.o)
 .rodata        0x8f858d10        0x8 board/amlogic/8726m_mid_refb04/lib8726m_mid_refb04.a(saradc.o)
 .rodata        0x8f858d18       0x34 board/amlogic/8726m_mid_refb04/lib8726m_mid_refb04.a(upgrade.o)
 .rodata        0x8f858d4c       0xd0 board/amlogic/8726m_mid_refb04/lib8726m_mid_refb04.a(battery_charging.o)
                0x8f858d4c                g_voltage_table
                0x8f858dbc                g_engery_table
 .rodata        0x8f858e1c       0x10 board/amlogic/8726m_mid_refb04/lib8726m_mid_refb04.a(debug.o)
 .rodata        0x8f858e2c      0x200 lib/libgeneric.a(crc16.o)
 .rodata        0x8f85902c      0x400 lib/libgeneric.a(crc32.o)
 .rodata        0x8f85942c        0x8 lib/libgeneric.a(display_options.o)
 .rodata        0x8f859434       0x24 lib/libgeneric.a(vsprintf.o)
                0x8f859444                hex_asc
 .rodata        0x8f859458      0x9d0 lib/libgeneric.a(zlib.o)
                0x8f859e00                z_errmsg
 .rodata        0x8f859e28       0x18 lib/lzma/liblzma.a(LzmaDec.o)
 .rodata        0x8f859e40        0xc lib/lzo/liblzo.a(lzo1x_decompress.o)
 .rodata        0x8f859e4c        0x8 arch/arm/cpu/aml_meson/m1/libm1.a(serial.o)
 .rodata        0x8f859e54       0x68 arch/arm/cpu/aml_meson/m1/libm1.a(pinmux.o)
 .rodata        0x8f859ebc       0x30 arch/arm/cpu/aml_meson/m1/libm1.a(gpio.o)
 .rodata        0x8f859eec       0x14 arch/arm/cpu/aml_meson/m1/libm1.a(tcon.o)
 .rodata        0x8f859f00       0x38 arch/arm/cpu/aml_meson/m1/libm1.a(osd_hw.o)
 .rodata        0x8f859f38      0x110 fs/ubifs/libubifs.a(ubifs.o)
 .rodata        0x8f85a048       0xbc fs/ubifs/libubifs.a(super.o)
 .rodata        0x8f85a104       0x24 fs/ubifs/libubifs.a(sb.o)
 .rodata        0x8f85a128       0x24 fs/ubifs/libubifs.a(master.o)
 .rodata        0x8f85a14c       0x54 fs/ubifs/libubifs.a(lpt.o)
 .rodata        0x8f85a1a0       0x50 fs/ubifs/libubifs.a(scan.o)
 .rodata        0x8f85a1f0       0x48 fs/ubifs/libubifs.a(tnc.o)
 .rodata        0x8f85a238       0x20 fs/ubifs/libubifs.a(tnc_misc.o)
 .rodata        0x8f85a258      0x200 fs/ubifs/libubifs.a(crc16.o)
                0x8f85a258                crc16_table
 .rodata        0x8f85a458       0x20 fs/ubifs/libubifs.a(orphan.o)
 .rodata        0x8f85a478       0x80 fs/ubifs/libubifs.a(recovery.o)
 .rodata        0x8f85a4f8       0x90 fs/ubifs/libubifs.a(replay.o)
 .rodata        0x8f85a588       0x40 fs/ubifs/libubifs.a(io.o)
 .rodata        0x8f85a5c8       0x18 disk/libdisk.a(part.o)
 .rodata        0x8f85a5e0       0x20 drivers/mtd/libmtd.a(mtdcore.o)
 .rodata        0x8f85a600       0x14 drivers/mtd/libmtd.a(mtdpart.o)
 .rodata        0x8f85a614       0x10 drivers/mtd/nand/libnand.a(nand_util.o)
 .rodata        0x8f85a624       0x54 drivers/mtd/ubi/libubi.a(build.o)
 .rodata        0x8f85a678       0x64 drivers/mtd/ubi/libubi.a(vtbl.o)
 .rodata        0x8f85a6dc       0x28 drivers/mtd/ubi/libubi.a(vmt.o)
 .rodata        0x8f85a704       0x20 drivers/mtd/ubi/libubi.a(kapi.o)
 .rodata        0x8f85a724       0x9c drivers/mtd/ubi/libubi.a(eba.o)
 .rodata        0x8f85a7c0       0xbc drivers/mtd/ubi/libubi.a(io.o)
 .rodata        0x8f85a87c       0xac drivers/mtd/ubi/libubi.a(wl.o)
 .rodata        0x8f85a928       0x7c drivers/mtd/ubi/libubi.a(scan.o)
 .rodata        0x8f85a9a4      0x400 drivers/mtd/ubi/libubi.a(crc32.o)
 .rodata        0x8f85ada4       0x78 drivers/mtd/spi/libspi_flash.a(macronix.o)
 .rodata        0x8f85ae1c       0x14 drivers/mtd/spi/libspi_flash.a(sst.o)
 .rodata        0x8f85ae30       0x64 drivers/mtd/spi/libspi_flash.a(winbond.o)
 .rodata        0x8f85ae94       0x94 drivers/usb/host/libusb_host.a(dwc_otg_hcd.o)
 .rodata        0x8f85af28       0x14 arch/arm/cpu/aml_meson/m1/libm1.a(usb.o)
 .rodata.str1.4
                0x8f85af3c       0x9a arch/arm/lib/libarm.a(board.o)
                                 0xa0 (size before relaxing)
 *fill*         0x8f85afd6        0x2 00
 .rodata.str1.4
                0x8f85afd8      0x293 arch/arm/lib/libarm.a(interrupts.o)
                                0x29c (size before relaxing)
 *fill*         0x8f85b26b        0x1 00
 .rodata.str1.4
                0x8f85b26c      0x31b drivers/i2c/libi2c.a(aml_i2c.o)
                                0x328 (size before relaxing)
 *fill*         0x8f85b587        0x1 00
 .rodata.str1.4
                0x8f85b588      0x489 drivers/mmc/libmmc.a(mmc.o)
                                0x490 (size before relaxing)
 *fill*         0x8f85ba11        0x3 00
 .rodata.str1.4
                0x8f85ba14       0xad drivers/mtd/nand/libnand.a(m1_nand.o)
                                 0xb0 (size before relaxing)
 *fill*         0x8f85bac1        0x3 00
 .rodata.str1.4
                0x8f85bac4      0xd73 drivers/mtd/nand/libnand.a(aml_nand.o)
                                0xda0 (size before relaxing)
 *fill*         0x8f85c837        0x1 00
 .rodata.str1.4
                0x8f85c838      0x26c drivers/mtd/nand/libnand.a(nand_base.o)
                                0x314 (size before relaxing)
 .rodata.str1.4
                0x8f85caa4      0x320 drivers/mtd/nand/libnand.a(nand_bbt.o)
 .rodata.str1.4
                0x8f85cdc4      0x354 drivers/mtd/nand/libnand.a(nand_ids.o)
 .rodata.str1.4
                0x8f85d118      0x25e drivers/rtc/librtc.a(aml_rtc.o)
                                0x260 (size before relaxing)
 *fill*         0x8f85d376        0x2 00
 .rodata.str1.4
                0x8f85d378      0x10f common/libcommon.a(cmd_autoscript.o)
                                0x110 (size before relaxing)
 *fill*         0x8f85d487        0x1 00
 .rodata.str1.4
                0x8f85d488       0x8b common/libcommon.a(cmd_bdinfo.o)
                                 0x90 (size before relaxing)
 *fill*         0x8f85d513        0x1 00
 .rodata.str1.4
                0x8f85d514      0x104 common/libcommon.a(cmd_bmp.o)
                                0x110 (size before relaxing)
 .rodata.str1.4
                0x8f85d618      0x153 common/libcommon.a(cmd_boot.o)
                                0x160 (size before relaxing)
 *fill*         0x8f85d76b        0x1 00
 .rodata.str1.4
                0x8f85d76c      0x755 common/libcommon.a(cmd_bootm.o)
                                0x770 (size before relaxing)
 *fill*         0x8f85dec1        0x3 00
 .rodata.str1.4
                0x8f85dec4       0x62 common/libcommon.a(cmd_console.o)
                                 0x68 (size before relaxing)
 *fill*         0x8f85df26        0x2 00
 .rodata.str1.4
                0x8f85df28       0x5b common/libcommon.a(cmd_echo.o)
                                 0x5c (size before relaxing)
 *fill*         0x8f85df83        0x1 00
 .rodata.str1.4
                0x8f85df84       0x14 common/libcommon.a(cmd_exit.o)
                                 0x18 (size before relaxing)
 .rodata.str1.4
                0x8f85df98      0x3b4 common/libcommon.a(cmd_ext2.o)
                                0x3cc (size before relaxing)
 .rodata.str1.4
                0x8f85e34c      0x404 common/libcommon.a(cmd_fat.o)
                                0x4d4 (size before relaxing)
 .rodata.str1.4
                0x8f85e750       0xa1 common/libcommon.a(cmd_help.o)
                                 0xa8 (size before relaxing)
 *fill*         0x8f85e7f1        0x3 00
 .rodata.str1.4
                0x8f85e7f4       0xc6 common/libcommon.a(cmd_itest.o)
                                 0xc8 (size before relaxing)
 *fill*         0x8f85e8ba        0x2 00
 .rodata.str1.4
                0x8f85e8bc      0x3c4 common/libcommon.a(cmd_load.o)
                                0x3e8 (size before relaxing)
 .rodata.str1.4
                0x8f85ec80      0x4cd common/libcommon.a(cmd_mem.o)
                                0x4e8 (size before relaxing)
 *fill*         0x8f85f14d        0x3 00
 .rodata.str1.4
                0x8f85f150       0x63 common/libcommon.a(cmd_misc.o)
                                 0x64 (size before relaxing)
 *fill*         0x8f85f1b3        0x1 00
 .rodata.str1.4
                0x8f85f1b4      0x27d common/libcommon.a(cmd_mmc.o)
                                0x290 (size before relaxing)
 *fill*         0x8f85f431        0x3 00
 .rodata.str1.4
                0x8f85f434      0xd83 common/libcommon.a(cmd_mtdparts.o)
                                0xda8 (size before relaxing)
 *fill*         0x8f8601b7        0x1 00
 .rodata.str1.4
                0x8f8601b8      0x948 common/libcommon.a(cmd_nand.o)
                                0x9a4 (size before relaxing)
 .rodata.str1.4
                0x8f860b00      0x47a common/libcommon.a(cmd_nvedit.o)
                                0x4d8 (size before relaxing)
 *fill*         0x8f860f7a        0x2 00
 .rodata.str1.4
                0x8f860f7c      0x28e common/libcommon.a(cmd_sf.o)
                                0x2a8 (size before relaxing)
 *fill*         0x8f86120a        0x2 00
 .rodata.str1.4
                0x8f86120c       0x82 common/libcommon.a(cmd_source.o)
                                0x118 (size before relaxing)
 *fill*         0x8f86128e        0x2 00
 .rodata.str1.4
                0x8f861290       0x85 common/libcommon.a(cmd_test.o)
                                 0xb4 (size before relaxing)
 *fill*         0x8f861315        0x3 00
 .rodata.str1.4
                0x8f861318      0xac2 common/libcommon.a(cmd_ubi.o)
                                0xb30 (size before relaxing)
 *fill*         0x8f861dda        0x2 00
 .rodata.str1.4
                0x8f861ddc      0x173 common/libcommon.a(cmd_ubifs.o)
                                0x178 (size before relaxing)
 *fill*         0x8f861f4f        0x1 00
 .rodata.str1.4
                0x8f861f50      0x926 common/libcommon.a(cmd_usb.o)
                                0xa24 (size before relaxing)
 *fill*         0x8f862876        0x2 00
 .rodata.str1.4
                0x8f862878       0x26 common/libcommon.a(cmd_version.o)
                                 0x2c (size before relaxing)
 *fill*         0x8f86289e        0x2 00
 .rodata.str1.4
                0x8f8628a0      0x199 common/libcommon.a(cmd_ximg.o)
                                0x254 (size before relaxing)
 *fill*         0x8f862a39        0x3 00
 .rodata.str1.4
                0x8f862a3c       0xad common/libcommon.a(command.o)
                                 0xe4 (size before relaxing)
 *fill*         0x8f862ae9        0x3 00
 .rodata.str1.4
                0x8f862aec       0x75 common/libcommon.a(console.o)
                                 0x7c (size before relaxing)
 *fill*         0x8f862b61        0x3 00
 .rodata.str1.4
                0x8f862b64       0x41 common/libcommon.a(env_common.o)
                                 0x48 (size before relaxing)
 *fill*         0x8f862ba5        0x3 00
 .rodata.str1.4
                0x8f862ba8       0x7d common/libcommon.a(env_nand.o)
                                 0x80 (size before relaxing)
 *fill*         0x8f862c25        0x3 00
 .rodata.str1.4
                0x8f862c28      0x26d common/libcommon.a(hush.o)
                                0x2b0 (size before relaxing)
 *fill*         0x8f862e95        0x3 00
 .rodata.str1.4
                0x8f862e98      0x4db common/libcommon.a(image.o)
                                0x578 (size before relaxing)
 *fill*         0x8f863373        0x1 00
 .rodata.str1.4
                0x8f863374      0x33c common/libcommon.a(kgdb.o)
                                0x340 (size before relaxing)
 .rodata.str1.4
                0x8f8636b0      0x44b common/libcommon.a(lcd_aml.o)
                                0x478 (size before relaxing)
 *fill*         0x8f863afb        0x1 00
 .rodata.str1.4
                0x8f863afc       0x9c common/libcommon.a(main.o)
                                0x108 (size before relaxing)
 .rodata.str1.4
                0x8f863b98        0x7 common/libcommon.a(stdio.o)
                                 0x20 (size before relaxing)
 *fill*         0x8f863b9f        0x1 00
 .rodata.str1.4
                0x8f863ba0      0x2a4 common/libcommon.a(usb.o)
 .rodata.str1.4
                0x8f863e44      0x212 common/libcommon.a(usb_storage.o)
                                0x218 (size before relaxing)
 *fill*         0x8f864056        0x2 00
 .rodata.str1.4
                0x8f864058       0xf1 common/libcommon.a(xyzModem.o)
                                 0xf8 (size before relaxing)
 *fill*         0x8f864149        0x3 00
 .rodata.str1.4
                0x8f86414c      0x7d2 board/amlogic/8726m_mid_refb04/lib8726m_mid_refb04.a(8726m_mid_refb04.o)
                                0x814 (size before relaxing)
 *fill*         0x8f86491e        0x2 00
 .rodata.str1.4
                0x8f864920       0x58 board/amlogic/8726m_mid_refb04/lib8726m_mid_refb04.a(lcd.o)
 .rodata.str1.4
                0x8f864978       0x11 board/amlogic/8726m_mid_refb04/lib8726m_mid_refb04.a(saradc.o)
                                 0x14 (size before relaxing)
 *fill*         0x8f864989        0x3 00
 .rodata.str1.4
                0x8f86498c      0x564 board/amlogic/8726m_mid_refb04/lib8726m_mid_refb04.a(upgrade.o)
                                0x600 (size before relaxing)
 .rodata.str1.4
                0x8f864ef0       0x51 board/amlogic/8726m_mid_refb04/lib8726m_mid_refb04.a(battery_charging.o)
                                 0x54 (size before relaxing)
 *fill*         0x8f864f41        0x3 00
 .rodata.str1.4
                0x8f864f44      0x144 board/amlogic/8726m_mid_refb04/lib8726m_mid_refb04.a(debug.o)
                                0x184 (size before relaxing)
 .rodata.str1.4
                0x8f865088       0x24 lib/libgeneric.a(display_options.o)
                                 0x54 (size before relaxing)
 .rodata.str1.4
                0x8f8650ac       0x8d lib/libgeneric.a(gunzip.o)
                                 0x90 (size before relaxing)
 *fill*         0x8f865139        0x3 00
 .rodata.str1.4
                0x8f86513c        0xf lib/libgeneric.a(vsprintf.o)
                                 0x10 (size before relaxing)
 *fill*         0x8f86514b        0x1 00
 .rodata.str1.4
                0x8f86514c      0x23d lib/libgeneric.a(zlib.o)
                                0x244 (size before relaxing)
 *fill*         0x8f865389        0x3 00
 .rodata.str1.4
                0x8f86538c       0x41 arch/arm/cpu/aml_meson/m1/libm1.a(sdio.o)
                                 0x44 (size before relaxing)
 *fill*         0x8f8653cd        0x3 00
 .rodata.str1.4
                0x8f8653d0       0x8d arch/arm/cpu/aml_meson/m1/libm1.a(pinmux.o)
                                 0x90 (size before relaxing)
 *fill*         0x8f86545d        0x3 00
 .rodata.str1.4
                0x8f865460       0x2a arch/arm/cpu/aml_meson/m1/libm1.a(tcon.o)
                                 0x54 (size before relaxing)
 *fill*         0x8f86548a        0x2 00
 .rodata.str1.4
                0x8f86548c       0x6b arch/arm/lib/libarm.a(bootm.o)
                                 0x78 (size before relaxing)
 *fill*         0x8f8654f7        0x1 00
 .rodata.str1.4
                0x8f8654f8        0xf arch/arm/lib/libarm.a(reset.o)
                                 0x10 (size before relaxing)
 *fill*         0x8f865507        0x1 00
 .rodata.str1.4
                0x8f865508      0x17b fs/fat/libfat.a(fat.o)
                                0x194 (size before relaxing)
 *fill*         0x8f865683        0x1 00
 .rodata.str1.4
                0x8f865684      0x1cf fs/ext2/libext2fs.a(ext2fs.o)
                                0x1d0 (size before relaxing)
 *fill*         0x8f865853        0x1 00
 .rodata.str1.4
                0x8f865854       0xe1 fs/ext2/libext2fs.a(dev.o)
                                 0xe4 (size before relaxing)
 *fill*         0x8f865935        0x3 00
 .rodata.str1.4
                0x8f865938      0x31f fs/ubifs/libubifs.a(ubifs.o)
                                0x32c (size before relaxing)
 *fill*         0x8f865c57        0x1 00
 .rodata.str1.4
                0x8f865c58      0x6aa fs/ubifs/libubifs.a(super.o)
                                0x6ac (size before relaxing)
 *fill*         0x8f866302        0x2 00
 .rodata.str1.4
                0x8f866304      0x2a4 fs/ubifs/libubifs.a(sb.o)
 .rodata.str1.4
                0x8f8665a8       0x79 fs/ubifs/libubifs.a(master.o)
                                 0x7c (size before relaxing)
 *fill*         0x8f866621        0x3 00
 .rodata.str1.4
                0x8f866624      0x15c fs/ubifs/libubifs.a(lpt.o)
 .rodata.str1.4
                0x8f866780      0x12a fs/ubifs/libubifs.a(scan.o)
                                0x12c (size before relaxing)
 *fill*         0x8f8668aa        0x2 00
 .rodata.str1.4
                0x8f8668ac      0x215 fs/ubifs/libubifs.a(tnc.o)
                                0x21c (size before relaxing)
 *fill*         0x8f866ac1        0x3 00
 .rodata.str1.4
                0x8f866ac4       0x44 fs/ubifs/libubifs.a(tnc_misc.o)
                                 0x7c (size before relaxing)
 .rodata.str1.4
                0x8f866b08       0xd7 fs/ubifs/libubifs.a(orphan.o)
                                 0xd8 (size before relaxing)
 *fill*         0x8f866bdf        0x1 00
 .rodata.str1.4
                0x8f866be0       0xef fs/ubifs/libubifs.a(recovery.o)
                                0x19c (size before relaxing)
 *fill*         0x8f866ccf        0x1 00
 .rodata.str1.4
                0x8f866cd0      0x2da fs/ubifs/libubifs.a(replay.o)
                                0x304 (size before relaxing)
 *fill*         0x8f866faa        0x2 00
 .rodata.str1.4
                0x8f866fac      0x1ff fs/ubifs/libubifs.a(io.o)
                                0x2e4 (size before relaxing)
 *fill*         0x8f8671ab        0x1 00
 .rodata.str1.4
                0x8f8671ac      0x1dd disk/libdisk.a(part.o)
                                0x210 (size before relaxing)
 *fill*         0x8f867389        0x3 00
 .rodata.str1.4
                0x8f86738c       0xf9 disk/libdisk.a(part_dos.o)
                                0x10c (size before relaxing)
 *fill*         0x8f867485        0x3 00
 .rodata.str1.4
                0x8f867488       0xf9 drivers/mmc/libmmc.a(aml_sd_mmc.o)
                                 0xfc (size before relaxing)
 *fill*         0x8f867581        0x3 00
 .rodata.str1.4
                0x8f867584       0x3a drivers/mtd/libmtd.a(mtdcore.o)
                                 0x64 (size before relaxing)
 *fill*         0x8f8675be        0x2 00
 .rodata.str1.4
                0x8f8675c0      0x1e2 drivers/mtd/libmtd.a(mtdpart.o)
                                0x20c (size before relaxing)
 *fill*         0x8f8677a2        0x2 00
 .rodata.str1.4
                0x8f8677a4      0x776 drivers/mtd/nand/libnand.a(nand_util.o)
                                0x7a8 (size before relaxing)
 *fill*         0x8f867f1a        0x2 00
 .rodata.str1.4
                0x8f867f1c      0x573 drivers/mtd/ubi/libubi.a(build.o)
                                0x848 (size before relaxing)
 *fill*         0x8f86848f        0x1 00
 .rodata.str1.4
                0x8f868490      0x363 drivers/mtd/ubi/libubi.a(vtbl.o)
                                0x364 (size before relaxing)
 *fill*         0x8f8687f3        0x1 00
 .rodata.str1.4
                0x8f8687f4       0x3a drivers/mtd/ubi/libubi.a(vmt.o)
                                 0x8c (size before relaxing)
 *fill*         0x8f86882e        0x2 00
 .rodata.str1.4
                0x8f868830       0x2e drivers/mtd/ubi/libubi.a(kapi.o)
                                 0x6c (size before relaxing)
 *fill*         0x8f86885e        0x2 00
 .rodata.str1.4
                0x8f868860      0x3f1 drivers/mtd/ubi/libubi.a(eba.o)
                                0x3f4 (size before relaxing)
 *fill*         0x8f868c51        0x3 00
 .rodata.str1.4
                0x8f868c54      0x510 drivers/mtd/ubi/libubi.a(io.o)
 .rodata.str1.4
                0x8f869164      0x2dd drivers/mtd/ubi/libubi.a(wl.o)
                                0x390 (size before relaxing)
 *fill*         0x8f869441        0x3 00
 .rodata.str1.4
                0x8f869444      0x2dd drivers/mtd/ubi/libubi.a(scan.o)
                                0x308 (size before relaxing)
 *fill*         0x8f869721        0x3 00
 .rodata.str1.4
                0x8f869724      0x103 drivers/mtd/spi/libspi_flash.a(spi_flash_aml.o)
                                0x104 (size before relaxing)
 *fill*         0x8f869827        0x1 00
 .rodata.str1.4
                0x8f869828      0x12a drivers/mtd/spi/libspi_flash.a(macronix.o)
                                0x12c (size before relaxing)
 *fill*         0x8f869952        0x2 00
 .rodata.str1.4
                0x8f869954       0x60 drivers/mtd/spi/libspi_flash.a(sst.o)
                                 0xfc (size before relaxing)
 .rodata.str1.4
                0x8f8699b4       0xb7 drivers/mtd/spi/libspi_flash.a(winbond.o)
                                0x11c (size before relaxing)
 *fill*         0x8f869a6b        0x1 00
 .rodata.str1.4
                0x8f869a6c      0x3b3 drivers/usb/host/libusb_host.a(dwc_otg_hcd.o)
                                0x3b4 (size before relaxing)
 *fill*         0x8f869e1f        0x1 00
 .rodata.str1.4
                0x8f869e20       0x58 arch/arm/cpu/aml_meson/m1/libm1.a(usb.o)

.mmudata        0x8f86c000     0x4000
 .mmudata       0x8f86c000     0x4000 arch/arm/cpu/aml_meson/m1/libm1.a(mmutable.o)
                0x8f86c000                mmu_table

.ARM.extab      0x8f870000        0x0
 .ARM.extab     0x8f870000        0x0 /opt/toolchains/arm-mlogic/bin/../lib/gcc/arm-none-eabi/4.4.1/libgcc.a(_divdi3.o)
 .ARM.extab     0x8f870000        0x0 /opt/toolchains/arm-mlogic/bin/../lib/gcc/arm-none-eabi/4.4.1/libgcc.a(_udivdi3.o)

.ARM.exidx      0x8f870000        0x8
 .ARM.exidx     0x8f870000        0x8 /opt/toolchains/arm-mlogic/bin/../lib/gcc/arm-none-eabi/4.4.1/libgcc.a(_divdi3.o)
 .ARM.exidx     0x8f870008        0x0 /opt/toolchains/arm-mlogic/bin/../lib/gcc/arm-none-eabi/4.4.1/libgcc.a(_udivdi3.o)
                                  0x8 (size before relaxing)
                0x8f870008                . = ALIGN (0x4)

.data           0x8f870008    0x15b60
 *(.data)
 .data          0x8f870008        0x0 arch/arm/cpu/aml_meson/start.o
 .data          0x8f870008        0x0 arch/arm/cpu/aml_meson/m1/libm1.a(mmutable.o)
 .data          0x8f870008        0x0 arch/arm/lib/libarm.a(cache_init.o)
 .data          0x8f870008       0x30 arch/arm/lib/libarm.a(board.o)
                0x8f870008                init_sequence
 .data          0x8f870038        0x0 arch/arm/lib/libarm.a(cache.o)
 .data          0x8f870038        0x0 arch/arm/lib/libarm.a(cache-cp15.o)
 .data          0x8f870038        0x0 arch/arm/lib/libarm.a(interrupts.o)
 .data          0x8f870038        0x0 arch/arm/lib/libarm.a(cache_v7.o)
 .data          0x8f870038       0x14 drivers/i2c/libi2c.a(aml_i2c.o)
 .data          0x8f87004c       0x50 drivers/mmc/libmmc.a(mmc.o)
                0x8f87004c                multipliers
                0x8f87008c                fbase
 .data          0x8f87009c        0x4 drivers/mtd/nand/libnand.a(m1_nand.o)
                0x8f87009c                nand_curr_device
 .data          0x8f8700a0     0xcbf0 drivers/mtd/nand/libnand.a(aml_nand.o)
                0x8f8700a0                aml_nand_flash_ids
 .data          0x8f87cc90     0x2420 drivers/mtd/nand/libnand.a(nand_base.o)
 .data          0x8f87f0b0      0x164 drivers/mtd/nand/libnand.a(nand_bbt.o)
 .data          0x8f87f214        0x0 drivers/mtd/nand/libnand.a(nand_ecc.o)
 .data          0x8f87f214      0x488 drivers/mtd/nand/libnand.a(nand_ids.o)
                0x8f87f214                nand_flash_ids
                0x8f87f64c                nand_manuf_ids
 .data          0x8f87f69c        0x0 drivers/rtc/librtc.a(aml_rtc.o)
 .data          0x8f87f69c        0x0 drivers/rtc/librtc.a(rtc-lib.o)
 .data          0x8f87f69c        0x0 common/libcommon.a(cmd_autoscript.o)
 .data          0x8f87f69c        0x0 common/libcommon.a(cmd_bdinfo.o)
 .data          0x8f87f69c       0x38 common/libcommon.a(cmd_bmp.o)
 .data          0x8f87f6d4        0x0 common/libcommon.a(cmd_boot.o)
 .data          0x8f87f6d4       0xa8 common/libcommon.a(cmd_bootm.o)
 .data          0x8f87f77c        0x0 common/libcommon.a(cmd_console.o)
 .data          0x8f87f77c        0x0 common/libcommon.a(cmd_echo.o)
 .data          0x8f87f77c        0x0 common/libcommon.a(cmd_exit.o)
 .data          0x8f87f77c        0x0 common/libcommon.a(cmd_ext2.o)
 .data          0x8f87f77c        0x0 common/libcommon.a(cmd_fat.o)
 .data          0x8f87f77c        0x0 common/libcommon.a(cmd_help.o)
 .data          0x8f87f77c       0x68 common/libcommon.a(cmd_itest.o)
                0x8f87f77c                op_table
 .data          0x8f87f7e4        0x4 common/libcommon.a(cmd_load.o)
 .data          0x8f87f7e8        0x4 common/libcommon.a(cmd_mem.o)
                0x8f87f7e8                dp_last_length
 .data          0x8f87f7ec        0x0 common/libcommon.a(cmd_misc.o)
 .data          0x8f87f7ec        0x0 common/libcommon.a(cmd_mmc.o)
 .data          0x8f87f7ec        0x0 common/libcommon.a(cmd_mtdparts.o)
 .data          0x8f87f7ec        0x4 common/libcommon.a(cmd_nand.o)
 .data          0x8f87f7f0        0x4 common/libcommon.a(cmd_nvedit.o)
 .data          0x8f87f7f4        0x0 common/libcommon.a(cmd_sf.o)
 .data          0x8f87f7f4        0x0 common/libcommon.a(cmd_source.o)
 .data          0x8f87f7f4        0x0 common/libcommon.a(cmd_test.o)
 .data          0x8f87f7f4        0x0 common/libcommon.a(cmd_ubi.o)
 .data          0x8f87f7f4        0x0 common/libcommon.a(cmd_ubifs.o)
 .data          0x8f87f7f4        0x4 common/libcommon.a(cmd_usb.o)
 .data          0x8f87f7f8        0x0 common/libcommon.a(cmd_version.o)
 .data          0x8f87f7f8        0x0 common/libcommon.a(cmd_ximg.o)
 .data          0x8f87f7f8        0x0 common/libcommon.a(command.o)
 .data          0x8f87f7f8        0x0 common/libcommon.a(console.o)
 .data          0x8f87f7f8      0x414 common/libcommon.a(dlmalloc.o)
 .data          0x8f87fc0c      0x5fc common/libcommon.a(env_common.o)
                0x8f87fc0c                default_environment
 .data          0x8f880208        0x4 common/libcommon.a(env_nand.o)
                0x8f880208                env_name_spec
 .data          0x8f88020c        0x0 common/libcommon.a(exports.o)
 .data          0x8f88020c       0xac common/libcommon.a(hush.o)
 .data          0x8f8802b8      0x204 common/libcommon.a(image.o)
 .data          0x8f8804bc        0x4 common/libcommon.a(kgdb.o)
 .data          0x8f8804c0        0x0 common/libcommon.a(kgdb_stubs.o)
 .data          0x8f8804c0       0x70 common/libcommon.a(lcd_aml.o)
 .data          0x8f880530       0x10 common/libcommon.a(main.o)
 .data          0x8f880540        0x0 common/libcommon.a(s_record.o)
 .data          0x8f880540        0xc common/libcommon.a(stdio.o)
                0x8f880540                stdio_names
 .data          0x8f88054c        0x0 common/libcommon.a(usb.o)
 .data          0x8f88054c       0x20 common/libcommon.a(usb_storage.o)
                0x8f88054c                us_direction
 .data          0x8f88056c        0x0 common/libcommon.a(xyzModem.o)
 .data          0x8f88056c     0x4c94 board/amlogic/8726m_mid_refb04/lib8726m_mid_refb04.a(8726m_mid_refb04.o)
                0x8f88504c                special_key_list
                0x8f88505c                adc_key_list
                0x8f88508c                ISO_88591_24Font
                0x8f8850a0                ISO_88591_18Font
                0x8f8850b4                ISO_88591_20Font
                0x8f8850c8                ISO_88591_32Font
                0x8f8850dc                ISO_88591_40Font
                0x8f8850f0                aml_nand_mid_device
                0x8f8850f8                aml_i2c_plat
                0x8f88514c                gpio_key_list
 .data          0x8f885200      0x6c4 board/amlogic/8726m_mid_refb04/lib8726m_mid_refb04.a(lcd.o)
                0x8f885200                tcon_config
                0x8f885888                panel_info
 .data          0x8f8858c4        0x0 board/amlogic/8726m_mid_refb04/lib8726m_mid_refb04.a(saradc.o)
 .data          0x8f8858c4        0x0 board/amlogic/8726m_mid_refb04/lib8726m_mid_refb04.a(powerkey.o)
 .data          0x8f8858c4        0x0 board/amlogic/8726m_mid_refb04/lib8726m_mid_refb04.a(upgrade.o)
 .data          0x8f8858c4        0x0 board/amlogic/8726m_mid_refb04/lib8726m_mid_refb04.a(battery_charging.o)
 .data          0x8f8858c4        0x0 board/amlogic/8726m_mid_refb04/lib8726m_mid_refb04.a(debug.o)
 .data          0x8f8858c4        0x0 lib/libgeneric.a(crc16.o)
 .data          0x8f8858c4        0x0 lib/libgeneric.a(crc32.o)
 .data          0x8f8858c4      0x100 lib/libgeneric.a(ctype.o)
                0x8f8858c4                _ctype
 .data          0x8f8859c4        0x0 lib/libgeneric.a(display_options.o)
 .data          0x8f8859c4        0x0 lib/libgeneric.a(div64.o)
 .data          0x8f8859c4        0x0 lib/libgeneric.a(gunzip.o)
 .data          0x8f8859c4        0x0 lib/libgeneric.a(net_utils.o)
 .data          0x8f8859c4        0x0 lib/libgeneric.a(string.o)
 .data          0x8f8859c4        0x0 lib/libgeneric.a(time.o)
 .data          0x8f8859c4        0x0 lib/libgeneric.a(vsprintf.o)
 .data          0x8f8859c4        0x0 lib/libgeneric.a(zlib.o)
 .data          0x8f8859c4        0x0 lib/lzma/liblzma.a(LzmaTools.o)
 .data          0x8f8859c4        0x0 lib/lzma/liblzma.a(LzmaDec.o)
 .data          0x8f8859c4        0x0 lib/lzo/liblzo.a(lzo1x_decompress.o)
 .data          0x8f8859c4        0x0 arch/arm/cpu/aml_meson/m1/libm1.a(timer.o)
 .data          0x8f8859c4        0x0 arch/arm/cpu/aml_meson/m1/libm1.a(soc.o)
 .data          0x8f8859c4        0x0 arch/arm/cpu/aml_meson/m1/libm1.a(board.o)
 .data          0x8f8859c4       0xb0 arch/arm/cpu/aml_meson/m1/libm1.a(sdio.o)
 .data          0x8f885a74        0x0 arch/arm/cpu/aml_meson/m1/libm1.a(serial.o)
 .data          0x8f885a74        0x4 arch/arm/cpu/aml_meson/m1/libm1.a(clock.o)
                0x8f885a74                romboot_info
 .data          0x8f885a78        0x0 arch/arm/cpu/aml_meson/m1/libm1.a(pinmux.o)
 .data          0x8f885a78        0x0 arch/arm/cpu/aml_meson/m1/libm1.a(gpio.o)
 .data          0x8f885a78        0x0 arch/arm/cpu/aml_meson/m1/libm1.a(tcon.o)
 .data          0x8f885a78        0x0 arch/arm/cpu/aml_meson/m1/libm1.a(osd_hw.o)
 .data          0x8f885a78        0x0 arch/arm/cpu/aml_meson/m1/libm1.a(canvas.o)
 .data          0x8f885a78        0x0 arch/arm/lib/libarm.a(bootm.o)
 .data          0x8f885a78        0x0 arch/arm/lib/libarm.a(reset.o)
 .data          0x8f885a78        0x0 arch/arm/lib/libarm.a(kgdb.o)
 .data          0x8f885a78        0x4 fs/fat/libfat.a(fat.o)
 .data          0x8f885a7c        0x8 fs/ext2/libext2fs.a(ext2fs.o)
                0x8f885a7c                indir1_blkno
                0x8f885a80                indir2_blkno
 .data          0x8f885a84        0x0 fs/ext2/libext2fs.a(dev.o)
 .data          0x8f885a84       0x30 fs/ubifs/libubifs.a(ubifs.o)
 .data          0x8f885ab4       0x20 fs/ubifs/libubifs.a(super.o)
 .data          0x8f885ad4        0x0 fs/ubifs/libubifs.a(sb.o)
 .data          0x8f885ad4        0x0 fs/ubifs/libubifs.a(master.o)
 .data          0x8f885ad4        0x0 fs/ubifs/libubifs.a(lpt.o)
 .data          0x8f885ad4        0x0 fs/ubifs/libubifs.a(lpt_commit.o)
 .data          0x8f885ad4        0x0 fs/ubifs/libubifs.a(scan.o)
 .data          0x8f885ad4        0x0 fs/ubifs/libubifs.a(lprops.o)
 .data          0x8f885ad4        0x0 fs/ubifs/libubifs.a(tnc.o)
 .data          0x8f885ad4        0x0 fs/ubifs/libubifs.a(tnc_misc.o)
 .data          0x8f885ad4        0x0 fs/ubifs/libubifs.a(crc16.o)
 .data          0x8f885ad4        0x0 fs/ubifs/libubifs.a(budget.o)
 .data          0x8f885ad4        0x0 fs/ubifs/libubifs.a(orphan.o)
 .data          0x8f885ad4        0x0 fs/ubifs/libubifs.a(recovery.o)
 .data          0x8f885ad4        0x0 fs/ubifs/libubifs.a(replay.o)
 .data          0x8f885ad4        0x0 fs/ubifs/libubifs.a(io.o)
 .data          0x8f885ad4        0x0 fs/ubifs/libubifs.a(log.o)
 .data          0x8f885ad4        0x0 disk/libdisk.a(part.o)
 .data          0x8f885ad4        0x0 disk/libdisk.a(part_dos.o)
 .data          0x8f885ad4        0x4 drivers/mmc/libmmc.a(aml_sd_mmc.o)
 .data          0x8f885ad8        0x0 drivers/mtd/libmtd.a(mtdcore.o)
 .data          0x8f885ad8        0x0 drivers/mtd/libmtd.a(mtdpart.o)
 .data          0x8f885ad8        0x0 drivers/mtd/nand/libnand.a(nand_util.o)
 .data          0x8f885ad8        0x0 drivers/mtd/ubi/libubi.a(build.o)
 .data          0x8f885ad8        0x0 drivers/mtd/ubi/libubi.a(vtbl.o)
 .data          0x8f885ad8        0x0 drivers/mtd/ubi/libubi.a(vmt.o)
 .data          0x8f885ad8        0x0 drivers/mtd/ubi/libubi.a(upd.o)
 .data          0x8f885ad8        0x0 drivers/mtd/ubi/libubi.a(kapi.o)
 .data          0x8f885ad8        0x0 drivers/mtd/ubi/libubi.a(eba.o)
 .data          0x8f885ad8        0x0 drivers/mtd/ubi/libubi.a(io.o)
 .data          0x8f885ad8        0x0 drivers/mtd/ubi/libubi.a(wl.o)
 .data          0x8f885ad8        0x0 drivers/mtd/ubi/libubi.a(scan.o)
 .data          0x8f885ad8        0x0 drivers/mtd/ubi/libubi.a(crc32.o)
 .data          0x8f885ad8        0x0 drivers/mtd/ubi/libubi.a(misc.o)
 .data          0x8f885ad8        0x0 drivers/mtd/spi/libspi_flash.a(spi_flash_aml.o)
 .data          0x8f885ad8        0x0 drivers/mtd/spi/libspi_flash.a(macronix.o)
 .data          0x8f885ad8        0x0 drivers/mtd/spi/libspi_flash.a(sst.o)
 .data          0x8f885ad8        0x0 drivers/mtd/spi/libspi_flash.a(winbond.o)
 .data          0x8f885ad8        0x0 drivers/spi/libspi.a(amlogic_spi_a.o)
 .data          0x8f885ad8       0x90 drivers/usb/host/libusb_host.a(dwc_otg_hcd.o)
 .data          0x8f885b68        0x0 common/libcommon.a(devfont.o)
 .data          0x8f885b68        0x0 lib/libgeneric.a(rbtree.o)
 .data          0x8f885b68        0x0 arch/arm/cpu/aml_meson/libaml_meson.a(cpu.o)
 .data          0x8f885b68        0x0 arch/arm/cpu/aml_meson/m1/libm1.a(usb.o)
 .data          0x8f885b68        0x0 /opt/toolchains/arm-mlogic/bin/../lib/gcc/arm-none-eabi/4.4.1/libgcc.a(_udivsi3.o)
 .data          0x8f885b68        0x0 /opt/toolchains/arm-mlogic/bin/../lib/gcc/arm-none-eabi/4.4.1/libgcc.a(_divsi3.o)
 .data          0x8f885b68        0x0 /opt/toolchains/arm-mlogic/bin/../lib/gcc/arm-none-eabi/4.4.1/libgcc.a(_dvmd_tls.o)
 .data          0x8f885b68        0x0 /opt/toolchains/arm-mlogic/bin/../lib/gcc/arm-none-eabi/4.4.1/libgcc.a(_lshrdi3.o)
 .data          0x8f885b68        0x0 /opt/toolchains/arm-mlogic/bin/../lib/gcc/arm-none-eabi/4.4.1/libgcc.a(_ashldi3.o)
 .data          0x8f885b68        0x0 /opt/toolchains/arm-mlogic/bin/../lib/gcc/arm-none-eabi/4.4.1/libgcc.a(_aeabi_ldivmod.o)
 .data          0x8f885b68        0x0 /opt/toolchains/arm-mlogic/bin/../lib/gcc/arm-none-eabi/4.4.1/libgcc.a(_aeabi_uldivmod.o)
 .data          0x8f885b68        0x0 /opt/toolchains/arm-mlogic/bin/../lib/gcc/arm-none-eabi/4.4.1/libgcc.a(bpabi.o)
 .data          0x8f885b68        0x0 /opt/toolchains/arm-mlogic/bin/../lib/gcc/arm-none-eabi/4.4.1/libgcc.a(_divdi3.o)
 .data          0x8f885b68        0x0 /opt/toolchains/arm-mlogic/bin/../lib/gcc/arm-none-eabi/4.4.1/libgcc.a(_udivdi3.o)
 .data          0x8f885b68        0x0 /opt/toolchains/arm-mlogic/bin/../lib/gcc/arm-none-eabi/4.4.1/libgcc.a(_clzsi2.o)
                0x8f885b68                . = ALIGN (0x4)

.got
 *(.got)
                0x8f885b68                __u_boot_cmd_start = .

.u_boot_cmd     0x8f885b68      0x738
 *(.u_boot_cmd)
 .u_boot_cmd    0x8f885b68       0x1c common/libcommon.a(cmd_autoscript.o)
                0x8f885b68                __u_boot_cmd_autoscr
 .u_boot_cmd    0x8f885b84       0x1c common/libcommon.a(cmd_bdinfo.o)
                0x8f885b84                __u_boot_cmd_bdinfo
 .u_boot_cmd    0x8f885ba0       0x1c common/libcommon.a(cmd_bmp.o)
                0x8f885ba0                __u_boot_cmd_bmp
 .u_boot_cmd    0x8f885bbc       0x54 common/libcommon.a(cmd_boot.o)
                0x8f885bbc                __u_boot_cmd_go
                0x8f885bd8                __u_boot_cmd_reset
                0x8f885bf4                __u_boot_cmd_power
 .u_boot_cmd    0x8f885c10       0x54 common/libcommon.a(cmd_bootm.o)
                0x8f885c10                __u_boot_cmd_bootm
                0x8f885c2c                __u_boot_cmd_boot
                0x8f885c48                __u_boot_cmd_bootd
 .u_boot_cmd    0x8f885c64       0x1c common/libcommon.a(cmd_console.o)
                0x8f885c64                __u_boot_cmd_coninfo
 .u_boot_cmd    0x8f885c80       0x1c common/libcommon.a(cmd_echo.o)
                0x8f885c80                __u_boot_cmd_echo
 .u_boot_cmd    0x8f885c9c       0x1c common/libcommon.a(cmd_exit.o)
                0x8f885c9c                __u_boot_cmd_exit
 .u_boot_cmd    0x8f885cb8       0x38 common/libcommon.a(cmd_ext2.o)
                0x8f885cb8                __u_boot_cmd_ext2ls
                0x8f885cd4                __u_boot_cmd_ext2load
 .u_boot_cmd    0x8f885cf0       0x70 common/libcommon.a(cmd_fat.o)
                0x8f885cf0                __u_boot_cmd_fatload
                0x8f885d0c                __u_boot_cmd_fatexist
                0x8f885d28                __u_boot_cmd_fatls
                0x8f885d44                __u_boot_cmd_fatinfo
 .u_boot_cmd    0x8f885d60       0x38 common/libcommon.a(cmd_help.o)
                0x8f885d60                __u_boot_cmd_help
                0x8f885d7c                __u_boot_cmd_question_mark
 .u_boot_cmd    0x8f885d98       0x1c common/libcommon.a(cmd_itest.o)
                0x8f885d98                __u_boot_cmd_itest
 .u_boot_cmd    0x8f885db4       0x70 common/libcommon.a(cmd_load.o)
                0x8f885db4                __u_boot_cmd_loads
                0x8f885dd0                __u_boot_cmd_loadb
                0x8f885dec                __u_boot_cmd_loadx
                0x8f885e08                __u_boot_cmd_loady
 .u_boot_cmd    0x8f885e24      0x118 common/libcommon.a(cmd_mem.o)
                0x8f885e24                __u_boot_cmd_md
                0x8f885e40                __u_boot_cmd_mm
                0x8f885e5c                __u_boot_cmd_nm
                0x8f885e78                __u_boot_cmd_mw
                0x8f885e94                __u_boot_cmd_cp
                0x8f885eb0                __u_boot_cmd_cmp
                0x8f885ecc                __u_boot_cmd_crc32
                0x8f885ee8                __u_boot_cmd_base
                0x8f885f04                __u_boot_cmd_loop
                0x8f885f20                __u_boot_cmd_mtest
 .u_boot_cmd    0x8f885f3c       0x1c common/libcommon.a(cmd_misc.o)
                0x8f885f3c                __u_boot_cmd_sleep
 .u_boot_cmd    0x8f885f58       0x54 common/libcommon.a(cmd_mmc.o)
                0x8f885f58                __u_boot_cmd_mmcinfo
                0x8f885f74                __u_boot_cmd_mmcselect
                0x8f885f90                __u_boot_cmd_mmc
 .u_boot_cmd    0x8f885fac       0x38 common/libcommon.a(cmd_mtdparts.o)
                0x8f885fac                __u_boot_cmd_chpart
                0x8f885fc8                __u_boot_cmd_mtdparts
 .u_boot_cmd    0x8f885fe4       0x38 common/libcommon.a(cmd_nand.o)
                0x8f885fe4                __u_boot_cmd_nand
                0x8f886000                __u_boot_cmd_nboot
 .u_boot_cmd    0x8f88601c       0xc4 common/libcommon.a(cmd_nvedit.o)
                0x8f88601c                __u_boot_cmd_saveenv
                0x8f886038                __u_boot_cmd_editenv
                0x8f886054                __u_boot_cmd_printenv
                0x8f886070                __u_boot_cmd_setenv
                0x8f88608c                __u_boot_cmd_loadenv
                0x8f8860a8                __u_boot_cmd_defenv
                0x8f8860c4                __u_boot_cmd_run
 .u_boot_cmd    0x8f8860e0       0x1c common/libcommon.a(cmd_sf.o)
                0x8f8860e0                __u_boot_cmd_sf
 .u_boot_cmd    0x8f8860fc       0x1c common/libcommon.a(cmd_source.o)
                0x8f8860fc                __u_boot_cmd_source
 .u_boot_cmd    0x8f886118       0x54 common/libcommon.a(cmd_test.o)
                0x8f886118                __u_boot_cmd_test
                0x8f886134                __u_boot_cmd_false
                0x8f886150                __u_boot_cmd_true
 .u_boot_cmd    0x8f88616c       0x1c common/libcommon.a(cmd_ubi.o)
                0x8f88616c                __u_boot_cmd_ubi
 .u_boot_cmd    0x8f886188       0x54 common/libcommon.a(cmd_ubifs.o)
                0x8f886188                __u_boot_cmd_ubifsmount
                0x8f8861a4                __u_boot_cmd_ubifsls
                0x8f8861c0                __u_boot_cmd_ubifsload
 .u_boot_cmd    0x8f8861dc       0x38 common/libcommon.a(cmd_usb.o)
                0x8f8861dc                __u_boot_cmd_usb
                0x8f8861f8                __u_boot_cmd_usbboot
 .u_boot_cmd    0x8f886214       0x1c common/libcommon.a(cmd_version.o)
                0x8f886214                __u_boot_cmd_version
 .u_boot_cmd    0x8f886230       0x1c common/libcommon.a(cmd_ximg.o)
                0x8f886230                __u_boot_cmd_imxtract
 .u_boot_cmd    0x8f88624c       0x1c common/libcommon.a(hush.o)
                0x8f88624c                __u_boot_cmd_showvar
 .u_boot_cmd    0x8f886268       0x1c common/libcommon.a(kgdb.o)
                0x8f886268                __u_boot_cmd_kgdb
 .u_boot_cmd    0x8f886284       0x1c common/libcommon.a(lcd_aml.o)
                0x8f886284                __u_boot_cmd_lcd
                0x8f8862a0                __u_boot_cmd_end = .
                0x8f8862a0                . = ALIGN (0x4)
                0x8f8862a0                __bss_start = .

.bss            0x8f8862a0    0x43344
 *(.bss)
 .bss           0x8f8862a0        0x0 arch/arm/cpu/aml_meson/start.o
 .bss           0x8f8862a0        0x0 arch/arm/cpu/aml_meson/m1/libm1.a(mmutable.o)
 .bss           0x8f8862a0        0x0 arch/arm/lib/libarm.a(cache_init.o)
 .bss           0x8f8862a0        0x0 arch/arm/lib/libarm.a(board.o)
 .bss           0x8f8862a0        0x0 arch/arm/lib/libarm.a(cache.o)
 .bss           0x8f8862a0        0x0 arch/arm/lib/libarm.a(cache-cp15.o)
 .bss           0x8f8862a0        0x0 arch/arm/lib/libarm.a(interrupts.o)
 .bss           0x8f8862a0        0x0 arch/arm/lib/libarm.a(cache_v7.o)
 .bss           0x8f8862a0       0x68 drivers/i2c/libi2c.a(aml_i2c.o)
                0x8f8862a0                aml_i2c_ddata
 .bss           0x8f886308        0x8 drivers/mmc/libmmc.a(mmc.o)
 .bss           0x8f886310        0x8 drivers/mtd/nand/libnand.a(m1_nand.o)
 .bss           0x8f886318        0x0 drivers/mtd/nand/libnand.a(aml_nand.o)
 .bss           0x8f886318        0x0 drivers/mtd/nand/libnand.a(nand_base.o)
 .bss           0x8f886318        0x0 drivers/mtd/nand/libnand.a(nand_bbt.o)
 .bss           0x8f886318        0x0 drivers/mtd/nand/libnand.a(nand_ecc.o)
 .bss           0x8f886318        0x0 drivers/mtd/nand/libnand.a(nand_ids.o)
 .bss           0x8f886318        0x4 drivers/rtc/librtc.a(aml_rtc.o)
                0x8f886318                c_dbg_lvl
 .bss           0x8f88631c        0x0 drivers/rtc/librtc.a(rtc-lib.o)
 .bss           0x8f88631c        0x0 common/libcommon.a(cmd_autoscript.o)
 .bss           0x8f88631c        0x0 common/libcommon.a(cmd_bdinfo.o)
 .bss           0x8f88631c        0x0 common/libcommon.a(cmd_bmp.o)
 .bss           0x8f88631c        0x0 common/libcommon.a(cmd_boot.o)
 .bss           0x8f88631c       0x90 common/libcommon.a(cmd_bootm.o)
                0x8f8863a8                load_addr
 .bss           0x8f8863ac        0x0 common/libcommon.a(cmd_console.o)
 .bss           0x8f8863ac        0x0 common/libcommon.a(cmd_echo.o)
 .bss           0x8f8863ac        0x0 common/libcommon.a(cmd_exit.o)
 .bss           0x8f8863ac        0x0 common/libcommon.a(cmd_ext2.o)
 .bss           0x8f8863ac        0x0 common/libcommon.a(cmd_fat.o)
 .bss           0x8f8863ac        0x0 common/libcommon.a(cmd_help.o)
 .bss           0x8f8863ac        0x0 common/libcommon.a(cmd_itest.o)
 .bss           0x8f8863ac       0x34 common/libcommon.a(cmd_load.o)
 .bss           0x8f8863e0        0x4 common/libcommon.a(cmd_mem.o)
 .bss           0x8f8863e4        0x0 common/libcommon.a(cmd_misc.o)
 .bss           0x8f8863e4        0x0 common/libcommon.a(cmd_mmc.o)
 .bss           0x8f8863e4      0x29c common/libcommon.a(cmd_mtdparts.o)
                0x8f8863e4                current_mtd_dev
                0x8f8863e8                current_mtd_partnum
 .bss           0x8f886680        0x0 common/libcommon.a(cmd_nand.o)
 .bss           0x8f886680        0x0 common/libcommon.a(cmd_nvedit.o)
 .bss           0x8f886680        0x4 common/libcommon.a(cmd_sf.o)
 .bss           0x8f886684        0x0 common/libcommon.a(cmd_source.o)
 .bss           0x8f886684        0x0 common/libcommon.a(cmd_test.o)
 .bss           0x8f886684       0xb4 common/libcommon.a(cmd_ubi.o)
 .bss           0x8f886738        0x8 common/libcommon.a(cmd_ubifs.o)
 .bss           0x8f886740        0x0 common/libcommon.a(cmd_usb.o)
 .bss           0x8f886740        0x0 common/libcommon.a(cmd_version.o)
 .bss           0x8f886740        0x0 common/libcommon.a(cmd_ximg.o)
 .bss           0x8f886740      0x300 common/libcommon.a(command.o)
 .bss           0x8f886a40        0x8 common/libcommon.a(console.o)
 .bss           0x8f886a48       0x44 common/libcommon.a(dlmalloc.o)
                0x8f886a48                mem_malloc_brk
                0x8f886a4c                mem_malloc_start
                0x8f886a50                mem_malloc_end
 .bss           0x8f886a8c        0x0 common/libcommon.a(env_common.o)
 .bss           0x8f886a8c        0x4 common/libcommon.a(env_nand.o)
                0x8f886a8c                env_ptr
 .bss           0x8f886a90        0x0 common/libcommon.a(exports.o)
 .bss           0x8f886a90      0x250 common/libcommon.a(hush.o)
 .bss           0x8f886ce0        0x0 common/libcommon.a(image.o)
 .bss           0x8f886ce0     0x52d4 common/libcommon.a(kgdb.o)
 .bss           0x8f88bfb4        0x0 common/libcommon.a(kgdb_stubs.o)
 .bss           0x8f88bfb4        0x8 common/libcommon.a(lcd_aml.o)
                0x8f88bfb8                lcd_is_enabled
 .bss           0x8f88bfbc        0x0 common/libcommon.a(main.o)
 .bss           0x8f88bfbc        0x0 common/libcommon.a(s_record.o)
 .bss           0x8f88bfbc       0x48 common/libcommon.a(stdio.o)
                0x8f88bff8                stdio_devices
 .bss           0x8f88c004     0xaa18 common/libcommon.a(usb.o)
 .bss           0x8f896a1c      0x5b8 common/libcommon.a(usb_storage.o)
 .bss           0x8f896fd4      0x43c common/libcommon.a(xyzModem.o)
 .bss           0x8f897410        0x0 board/amlogic/8726m_mid_refb04/lib8726m_mid_refb04.a(8726m_mid_refb04.o)
 .bss           0x8f897410        0x0 board/amlogic/8726m_mid_refb04/lib8726m_mid_refb04.a(lcd.o)
 .bss           0x8f897410        0x0 board/amlogic/8726m_mid_refb04/lib8726m_mid_refb04.a(saradc.o)
 .bss           0x8f897410        0x4 board/amlogic/8726m_mid_refb04/lib8726m_mid_refb04.a(powerkey.o)
                0x8f897410                board_ver
 .bss           0x8f897414        0x0 board/amlogic/8726m_mid_refb04/lib8726m_mid_refb04.a(upgrade.o)
 .bss           0x8f897414       0x1c board/amlogic/8726m_mid_refb04/lib8726m_mid_refb04.a(battery_charging.o)
 .bss           0x8f897430        0x0 board/amlogic/8726m_mid_refb04/lib8726m_mid_refb04.a(debug.o)
 .bss           0x8f897430        0x0 lib/libgeneric.a(crc16.o)
 .bss           0x8f897430        0x0 lib/libgeneric.a(crc32.o)
 .bss           0x8f897430        0x0 lib/libgeneric.a(ctype.o)
 .bss           0x8f897430        0x0 lib/libgeneric.a(display_options.o)
 .bss           0x8f897430        0x0 lib/libgeneric.a(div64.o)
 .bss           0x8f897430        0x0 lib/libgeneric.a(gunzip.o)
 .bss           0x8f897430        0x0 lib/libgeneric.a(net_utils.o)
 .bss           0x8f897430        0x0 lib/libgeneric.a(string.o)
 .bss           0x8f897430        0x0 lib/libgeneric.a(time.o)
 .bss           0x8f897430        0x0 lib/libgeneric.a(vsprintf.o)
 .bss           0x8f897430        0x0 lib/libgeneric.a(zlib.o)
 .bss           0x8f897430        0x0 lib/lzma/liblzma.a(LzmaTools.o)
 .bss           0x8f897430        0x0 lib/lzma/liblzma.a(LzmaDec.o)
 .bss           0x8f897430        0x0 lib/lzo/liblzo.a(lzo1x_decompress.o)
 .bss           0x8f897430        0x0 arch/arm/cpu/aml_meson/m1/libm1.a(timer.o)
 .bss           0x8f897430        0x0 arch/arm/cpu/aml_meson/m1/libm1.a(soc.o)
 .bss           0x8f897430        0x0 arch/arm/cpu/aml_meson/m1/libm1.a(board.o)
 .bss           0x8f897430        0x0 arch/arm/cpu/aml_meson/m1/libm1.a(sdio.o)
 .bss           0x8f897430        0x0 arch/arm/cpu/aml_meson/m1/libm1.a(serial.o)
 .bss           0x8f897430        0x4 arch/arm/cpu/aml_meson/m1/libm1.a(clock.o)
 .bss           0x8f897434        0x0 arch/arm/cpu/aml_meson/m1/libm1.a(pinmux.o)
 .bss           0x8f897434        0x0 arch/arm/cpu/aml_meson/m1/libm1.a(gpio.o)
 .bss           0x8f897434        0x4 arch/arm/cpu/aml_meson/m1/libm1.a(tcon.o)
 .bss           0x8f897438       0xf0 arch/arm/cpu/aml_meson/m1/libm1.a(osd_hw.o)
 .bss           0x8f897528      0xf00 arch/arm/cpu/aml_meson/m1/libm1.a(canvas.o)
 .bss           0x8f898428        0x4 arch/arm/lib/libarm.a(bootm.o)
 .bss           0x8f89842c        0x0 arch/arm/lib/libarm.a(reset.o)
 .bss           0x8f89842c        0x0 arch/arm/lib/libarm.a(kgdb.o)
 .bss           0x8f89842c        0x8 fs/fat/libfat.a(fat.o)
 .bss           0x8f898434       0x20 fs/ext2/libext2fs.a(ext2fs.o)
                0x8f898438                ext2fs_root
                0x8f89843c                ext2fs_file
                0x8f898440                indir1_block
                0x8f898444                indir1_size
                0x8f898448                indir2_block
                0x8f89844c                indir2_size
                0x8f898450                symlinknest
 .bss           0x8f898454       0x50 fs/ext2/libext2fs.a(dev.o)
 .bss           0x8f8984a4        0x0 fs/ubifs/libubifs.a(ubifs.o)
 .bss           0x8f8984a4      0x100 fs/ubifs/libubifs.a(super.o)
 .bss           0x8f8985a4        0x0 fs/ubifs/libubifs.a(sb.o)
 .bss           0x8f8985a4        0x0 fs/ubifs/libubifs.a(master.o)
 .bss           0x8f8985a4        0x0 fs/ubifs/libubifs.a(lpt.o)
 .bss           0x8f8985a4        0x0 fs/ubifs/libubifs.a(lpt_commit.o)
 .bss           0x8f8985a4        0x0 fs/ubifs/libubifs.a(scan.o)
 .bss           0x8f8985a4        0x0 fs/ubifs/libubifs.a(lprops.o)
 .bss           0x8f8985a4        0x0 fs/ubifs/libubifs.a(tnc.o)
 .bss           0x8f8985a4        0x0 fs/ubifs/libubifs.a(tnc_misc.o)
 .bss           0x8f8985a4        0x0 fs/ubifs/libubifs.a(crc16.o)
 .bss           0x8f8985a4        0x0 fs/ubifs/libubifs.a(budget.o)
 .bss           0x8f8985a4        0x0 fs/ubifs/libubifs.a(orphan.o)
 .bss           0x8f8985a4        0x0 fs/ubifs/libubifs.a(recovery.o)
 .bss           0x8f8985a4        0x0 fs/ubifs/libubifs.a(replay.o)
 .bss           0x8f8985a4        0x0 fs/ubifs/libubifs.a(io.o)
 .bss           0x8f8985a4        0x0 fs/ubifs/libubifs.a(log.o)
 .bss           0x8f8985a4        0x0 disk/libdisk.a(part.o)
 .bss           0x8f8985a4        0x0 disk/libdisk.a(part_dos.o)
 .bss           0x8f8985a4        0x0 drivers/mmc/libmmc.a(aml_sd_mmc.o)
 .bss           0x8f8985a4        0x0 drivers/mtd/libmtd.a(mtdcore.o)
 .bss           0x8f8985a4        0x0 drivers/mtd/libmtd.a(mtdpart.o)
 .bss           0x8f8985a4        0x0 drivers/mtd/nand/libnand.a(nand_util.o)
 .bss           0x8f8985a4      0x884 drivers/mtd/ubi/libubi.a(build.o)
 .bss           0x8f898e28       0xb0 drivers/mtd/ubi/libubi.a(vtbl.o)
 .bss           0x8f898ed8        0x0 drivers/mtd/ubi/libubi.a(vmt.o)
 .bss           0x8f898ed8        0x0 drivers/mtd/ubi/libubi.a(upd.o)
 .bss           0x8f898ed8        0x0 drivers/mtd/ubi/libubi.a(kapi.o)
 .bss           0x8f898ed8        0x0 drivers/mtd/ubi/libubi.a(eba.o)
 .bss           0x8f898ed8        0x0 drivers/mtd/ubi/libubi.a(io.o)
 .bss           0x8f898ed8        0x0 drivers/mtd/ubi/libubi.a(wl.o)
 .bss           0x8f898ed8        0x8 drivers/mtd/ubi/libubi.a(scan.o)
 .bss           0x8f898ee0        0x0 drivers/mtd/ubi/libubi.a(crc32.o)
 .bss           0x8f898ee0        0x0 drivers/mtd/ubi/libubi.a(misc.o)
 .bss           0x8f898ee0        0x0 drivers/mtd/spi/libspi_flash.a(spi_flash_aml.o)
 .bss           0x8f898ee0        0x0 drivers/mtd/spi/libspi_flash.a(macronix.o)
 .bss           0x8f898ee0        0x0 drivers/mtd/spi/libspi_flash.a(sst.o)
 .bss           0x8f898ee0        0x0 drivers/mtd/spi/libspi_flash.a(winbond.o)
 .bss           0x8f898ee0        0x0 drivers/spi/libspi.a(amlogic_spi_a.o)
 .bss           0x8f898ee0       0x20 drivers/usb/host/libusb_host.a(dwc_otg_hcd.o)
 .bss           0x8f898f00        0x8 common/libcommon.a(devfont.o)
                0x8f898f00                font_nums
                0x8f898f04                gpCurFont
 .bss           0x8f898f08        0x0 lib/libgeneric.a(rbtree.o)
 .bss           0x8f898f08        0x0 arch/arm/cpu/aml_meson/libaml_meson.a(cpu.o)
 .bss           0x8f898f08        0x4 arch/arm/cpu/aml_meson/m1/libm1.a(usb.o)
 .bss           0x8f898f0c        0x0 /opt/toolchains/arm-mlogic/bin/../lib/gcc/arm-none-eabi/4.4.1/libgcc.a(_udivsi3.o)
 .bss           0x8f898f0c        0x0 /opt/toolchains/arm-mlogic/bin/../lib/gcc/arm-none-eabi/4.4.1/libgcc.a(_divsi3.o)
 .bss           0x8f898f0c        0x0 /opt/toolchains/arm-mlogic/bin/../lib/gcc/arm-none-eabi/4.4.1/libgcc.a(_dvmd_tls.o)
 .bss           0x8f898f0c        0x0 /opt/toolchains/arm-mlogic/bin/../lib/gcc/arm-none-eabi/4.4.1/libgcc.a(_lshrdi3.o)
 .bss           0x8f898f0c        0x0 /opt/toolchains/arm-mlogic/bin/../lib/gcc/arm-none-eabi/4.4.1/libgcc.a(_ashldi3.o)
 .bss           0x8f898f0c        0x0 /opt/toolchains/arm-mlogic/bin/../lib/gcc/arm-none-eabi/4.4.1/libgcc.a(_aeabi_ldivmod.o)
 .bss           0x8f898f0c        0x0 /opt/toolchains/arm-mlogic/bin/../lib/gcc/arm-none-eabi/4.4.1/libgcc.a(_aeabi_uldivmod.o)
 .bss           0x8f898f0c        0x0 /opt/toolchains/arm-mlogic/bin/../lib/gcc/arm-none-eabi/4.4.1/libgcc.a(bpabi.o)
 .bss           0x8f898f0c        0x0 /opt/toolchains/arm-mlogic/bin/../lib/gcc/arm-none-eabi/4.4.1/libgcc.a(_divdi3.o)
 .bss           0x8f898f0c        0x0 /opt/toolchains/arm-mlogic/bin/../lib/gcc/arm-none-eabi/4.4.1/libgcc.a(_udivdi3.o)
 .bss           0x8f898f0c        0x0 /opt/toolchains/arm-mlogic/bin/../lib/gcc/arm-none-eabi/4.4.1/libgcc.a(_clzsi2.o)
 COMMON         0x8f898f0c        0x4 arch/arm/lib/libarm.a(board.o)
                0x8f898f0c                monitor_flash_len
 COMMON         0x8f898f10       0x10 drivers/mtd/nand/libnand.a(m1_nand.o)
                0x8f898f10                nand_info
 COMMON         0x8f898f20       0x2c common/libcommon.a(cmd_load.o)
                0x8f898f20                his_pad_char
                0x8f898f24                os_data_init
                0x8f898f28                send_ptr
                0x8f898f2c                os_data_char
                0x8f898f30                his_eol
                0x8f898f31                his_quote
                0x8f898f34                send_parms
                0x8f898f48                his_pad_count
 COMMON         0x8f898f4c       0x10 common/libcommon.a(cmd_mem.o)
                0x8f898f4c                dp_last_size
                0x8f898f50                dp_last_addr
                0x8f898f54                mm_last_size
                0x8f898f58                mm_last_addr
 COMMON         0x8f898f5c       0x10 common/libcommon.a(cmd_mtdparts.o)
                0x8f898f5c                mtdids
                0x8f898f64                devices
 COMMON         0x8f898f6c        0x8 common/libcommon.a(hush.o)
                0x8f898f6c                nesting_level
                0x8f898f70                last_return_code
 COMMON         0x8f898f74        0x4 common/libcommon.a(kgdb_stubs.o)
                0x8f898f74                debugger_exception_handler
 COMMON         0x8f898f78      0x101 common/libcommon.a(main.o)
                0x8f898f78                console_buffer
 COMMON         0x8f899079        0x1 common/libcommon.a(usb.o)
                0x8f899079                usb_started
 *fill*         0x8f89907a        0x2 00
 COMMON         0x8f89907c        0x4 lib/libgeneric.a(string.o)
                0x8f89907c                ___strtok
 COMMON         0x8f899080      0x400 arch/arm/lib/libarm.a(bootm.o)
                0x8f899080                args_buf
 COMMON         0x8f899480    0x30000 fs/fat/libfat.a(fat.o)
                0x8f899480                get_vfatname_block
                0x8f8a9480                get_dentfromdir_block
                0x8f8b9480                do_fat_read_block
 COMMON         0x8f8c9480        0xc fs/ubifs/libubifs.a(ubifs.o)
                0x8f8c9480                ubifs_compressors
 COMMON         0x8f8c948c        0xc fs/ubifs/libubifs.a(super.o)
                0x8f8c948c                ubifs_infos
                0x8f8c9494                ubifs_sb
 COMMON         0x8f8c9498       0x80 drivers/mtd/libmtd.a(mtdcore.o)
                0x8f8c9498                mtd_table
 COMMON         0x8f8c9518        0x8 drivers/mtd/libmtd.a(mtdpart.o)
                0x8f8c9518                mtd_partitions
 COMMON         0x8f8c9520       0x84 drivers/mtd/ubi/libubi.a(build.o)
                0x8f8c9520                ubi_class
                0x8f8c9524                ubi_devices
 COMMON         0x8f8c95a4       0x40 common/libcommon.a(devfont.o)
                0x8f8c95a4                font_arrays
                0x8f8c95e4                _end = .

.net            0x8f8ca000    0x20000
                0x8f8ca000                __net_dma_start = .
                0x8f8ea000                . = (__net_dma_start + 0x20000)
 *fill*         0x8f8ca000    0x20000 00
                0x8f8ea000                __net_dma_end = .
Address of section .text set to 0x8f800000
LOAD arch/arm/cpu/aml_meson/start.o
START GROUP
LOAD lib/libgeneric.a
LOAD lib/lzma/liblzma.a
LOAD lib/lzo/liblzo.a
LOAD lib/ucl/libucl.a
LOAD arch/arm/cpu/aml_meson/libaml_meson.a
LOAD arch/arm/cpu/aml_meson/m1/libm1.a
LOAD arch/arm/lib/libarm.a
LOAD fs/cramfs/libcramfs.a
LOAD fs/fat/libfat.a
LOAD fs/fdos/libfdos.a
LOAD fs/jffs2/libjffs2.a
LOAD fs/reiserfs/libreiserfs.a
LOAD fs/ext2/libext2fs.a
LOAD fs/yaffs2/libyaffs2.a
LOAD fs/ubifs/libubifs.a
LOAD net/libnet.a
LOAD disk/libdisk.a
LOAD drivers/bios_emulator/libatibiosemu.a
LOAD drivers/block/libblock.a
LOAD drivers/dma/libdma.a
LOAD drivers/fpga/libfpga.a
LOAD drivers/gpio/libgpio.a
LOAD drivers/hwmon/libhwmon.a
LOAD drivers/i2c/libi2c.a
LOAD drivers/input/libinput.a
LOAD drivers/input/touchscreen/libtouchscreen.a
LOAD drivers/misc/libmisc.a
LOAD drivers/mmc/libmmc.a
LOAD drivers/mtd/libmtd.a
LOAD drivers/mtd/nand/libnand.a
LOAD drivers/mtd/onenand/libonenand.a
LOAD drivers/mtd/ubi/libubi.a
LOAD drivers/mtd/spi/libspi_flash.a
LOAD drivers/net/libnet.a
LOAD drivers/net/phy/libphy.a
LOAD drivers/pci/libpci.a
LOAD drivers/pcmcia/libpcmcia.a
LOAD drivers/power/libpower.a
LOAD drivers/spi/libspi.a
LOAD drivers/rtc/librtc.a
LOAD drivers/serial/libserial.a
LOAD drivers/twserial/libtws.a
LOAD drivers/usb/gadget/libusb_gadget.a
LOAD drivers/usb/host/libusb_host.a
LOAD drivers/usb/musb/libusb_musb.a
LOAD drivers/usb/phy/libusb_phy.a
LOAD drivers/video/libvideo.a
LOAD drivers/watchdog/libwatchdog.a
LOAD drivers/efuse/efuse.a
LOAD drivers/extern_io/extern_io.a
LOAD common/libcommon.a
LOAD lib/libfdt/libfdt.a
LOAD api/libapi.a
LOAD post/libpost.a
LOAD board/amlogic/8726m_mid_refb04/lib8726m_mid_refb04.a
END GROUP
LOAD /opt/toolchains/arm-mlogic/bin/../lib/gcc/arm-none-eabi/4.4.1/libgcc.a
OUTPUT(u-boot elf32-littlearm)

.ARM.attributes
                0x00000000       0x31
 .ARM.attributes
                0x00000000       0x25 arch/arm/cpu/aml_meson/start.o
 .ARM.attributes
                0x00000025       0x25 arch/arm/cpu/aml_meson/m1/libm1.a(mmutable.o)
 .ARM.attributes
                0x0000004a       0x25 arch/arm/lib/libarm.a(cache_init.o)
 .ARM.attributes
                0x0000006f       0x35 arch/arm/lib/libarm.a(board.o)
 .ARM.attributes
                0x000000a4       0x35 arch/arm/lib/libarm.a(cache.o)
 .ARM.attributes
                0x000000d9       0x35 arch/arm/lib/libarm.a(cache-cp15.o)
 .ARM.attributes
                0x0000010e       0x35 arch/arm/lib/libarm.a(interrupts.o)
 .ARM.attributes
                0x00000143       0x25 arch/arm/lib/libarm.a(cache_v7.o)
 .ARM.attributes
                0x00000168       0x35 drivers/i2c/libi2c.a(aml_i2c.o)
 .ARM.attributes
                0x0000019d       0x35 drivers/mmc/libmmc.a(mmc.o)
 .ARM.attributes
                0x000001d2       0x35 drivers/mtd/nand/libnand.a(m1_nand.o)
 .ARM.attributes
                0x00000207       0x35 drivers/mtd/nand/libnand.a(aml_nand.o)
 .ARM.attributes
                0x0000023c       0x35 drivers/mtd/nand/libnand.a(nand_base.o)
 .ARM.attributes
                0x00000271       0x35 drivers/mtd/nand/libnand.a(nand_bbt.o)
 .ARM.attributes
                0x000002a6       0x35 drivers/mtd/nand/libnand.a(nand_ecc.o)
 .ARM.attributes
                0x000002db       0x35 drivers/mtd/nand/libnand.a(nand_ids.o)
 .ARM.attributes
                0x00000310       0x35 drivers/rtc/librtc.a(aml_rtc.o)
 .ARM.attributes
                0x00000345       0x35 drivers/rtc/librtc.a(rtc-lib.o)
 .ARM.attributes
                0x0000037a       0x35 common/libcommon.a(cmd_autoscript.o)
 .ARM.attributes
                0x000003af       0x35 common/libcommon.a(cmd_bdinfo.o)
 .ARM.attributes
                0x000003e4       0x35 common/libcommon.a(cmd_bmp.o)
 .ARM.attributes
                0x00000419       0x35 common/libcommon.a(cmd_boot.o)
 .ARM.attributes
                0x0000044e       0x35 common/libcommon.a(cmd_bootm.o)
 .ARM.attributes
                0x00000483       0x35 common/libcommon.a(cmd_console.o)
 .ARM.attributes
                0x000004b8       0x35 common/libcommon.a(cmd_echo.o)
 .ARM.attributes
                0x000004ed       0x35 common/libcommon.a(cmd_exit.o)
 .ARM.attributes
                0x00000522       0x35 common/libcommon.a(cmd_ext2.o)
 .ARM.attributes
                0x00000557       0x35 common/libcommon.a(cmd_fat.o)
 .ARM.attributes
                0x0000058c       0x35 common/libcommon.a(cmd_help.o)
 .ARM.attributes
                0x000005c1       0x35 common/libcommon.a(cmd_itest.o)
 .ARM.attributes
                0x000005f6       0x35 common/libcommon.a(cmd_load.o)
 .ARM.attributes
                0x0000062b       0x35 common/libcommon.a(cmd_mem.o)
 .ARM.attributes
                0x00000660       0x35 common/libcommon.a(cmd_misc.o)
 .ARM.attributes
                0x00000695       0x35 common/libcommon.a(cmd_mmc.o)
 .ARM.attributes
                0x000006ca       0x35 common/libcommon.a(cmd_mtdparts.o)
 .ARM.attributes
                0x000006ff       0x35 common/libcommon.a(cmd_nand.o)
 .ARM.attributes
                0x00000734       0x35 common/libcommon.a(cmd_nvedit.o)
 .ARM.attributes
                0x00000769       0x35 common/libcommon.a(cmd_sf.o)
 .ARM.attributes
                0x0000079e       0x35 common/libcommon.a(cmd_source.o)
 .ARM.attributes
                0x000007d3       0x35 common/libcommon.a(cmd_test.o)
 .ARM.attributes
                0x00000808       0x35 common/libcommon.a(cmd_ubi.o)
 .ARM.attributes
                0x0000083d       0x35 common/libcommon.a(cmd_ubifs.o)
 .ARM.attributes
                0x00000872       0x35 common/libcommon.a(cmd_usb.o)
 .ARM.attributes
                0x000008a7       0x35 common/libcommon.a(cmd_version.o)
 .ARM.attributes
                0x000008dc       0x35 common/libcommon.a(cmd_ximg.o)
 .ARM.attributes
                0x00000911       0x35 common/libcommon.a(command.o)
 .ARM.attributes
                0x00000946       0x35 common/libcommon.a(console.o)
 .ARM.attributes
                0x0000097b       0x35 common/libcommon.a(dlmalloc.o)
 .ARM.attributes
                0x000009b0       0x35 common/libcommon.a(env_common.o)
 .ARM.attributes
                0x000009e5       0x35 common/libcommon.a(env_nand.o)
 .ARM.attributes
                0x00000a1a       0x35 common/libcommon.a(exports.o)
 .ARM.attributes
                0x00000a4f       0x35 common/libcommon.a(hush.o)
 .ARM.attributes
                0x00000a84       0x35 common/libcommon.a(image.o)
 .ARM.attributes
                0x00000ab9       0x35 common/libcommon.a(kgdb.o)
 .ARM.attributes
                0x00000aee       0x35 common/libcommon.a(kgdb_stubs.o)
 .ARM.attributes
                0x00000b23       0x35 common/libcommon.a(lcd_aml.o)
 .ARM.attributes
                0x00000b58       0x35 common/libcommon.a(main.o)
 .ARM.attributes
                0x00000b8d       0x35 common/libcommon.a(s_record.o)
 .ARM.attributes
                0x00000bc2       0x35 common/libcommon.a(stdio.o)
 .ARM.attributes
                0x00000bf7       0x35 common/libcommon.a(usb.o)
 .ARM.attributes
                0x00000c2c       0x35 common/libcommon.a(usb_storage.o)
 .ARM.attributes
                0x00000c61       0x35 common/libcommon.a(xyzModem.o)
 .ARM.attributes
                0x00000c96       0x35 board/amlogic/8726m_mid_refb04/lib8726m_mid_refb04.a(8726m_mid_refb04.o)
 .ARM.attributes
                0x00000ccb       0x35 board/amlogic/8726m_mid_refb04/lib8726m_mid_refb04.a(lcd.o)
 .ARM.attributes
                0x00000d00       0x35 board/amlogic/8726m_mid_refb04/lib8726m_mid_refb04.a(saradc.o)
 .ARM.attributes
                0x00000d35       0x35 board/amlogic/8726m_mid_refb04/lib8726m_mid_refb04.a(powerkey.o)
 .ARM.attributes
                0x00000d6a       0x35 board/amlogic/8726m_mid_refb04/lib8726m_mid_refb04.a(upgrade.o)
 .ARM.attributes
                0x00000d9f       0x35 board/amlogic/8726m_mid_refb04/lib8726m_mid_refb04.a(battery_charging.o)
 .ARM.attributes
                0x00000dd4       0x35 board/amlogic/8726m_mid_refb04/lib8726m_mid_refb04.a(debug.o)
 .ARM.attributes
                0x00000e09       0x35 lib/libgeneric.a(crc16.o)
 .ARM.attributes
                0x00000e3e       0x35 lib/libgeneric.a(crc32.o)
 .ARM.attributes
                0x00000e73       0x35 lib/libgeneric.a(ctype.o)
 .ARM.attributes
                0x00000ea8       0x35 lib/libgeneric.a(display_options.o)
 .ARM.attributes
                0x00000edd       0x35 lib/libgeneric.a(div64.o)
 .ARM.attributes
                0x00000f12       0x35 lib/libgeneric.a(gunzip.o)
 .ARM.attributes
                0x00000f47       0x35 lib/libgeneric.a(net_utils.o)
 .ARM.attributes
                0x00000f7c       0x35 lib/libgeneric.a(string.o)
 .ARM.attributes
                0x00000fb1       0x35 lib/libgeneric.a(time.o)
 .ARM.attributes
                0x00000fe6       0x35 lib/libgeneric.a(vsprintf.o)
 .ARM.attributes
                0x0000101b       0x35 lib/libgeneric.a(zlib.o)
 .ARM.attributes
                0x00001050       0x35 lib/lzma/liblzma.a(LzmaTools.o)
 .ARM.attributes
                0x00001085       0x35 lib/lzma/liblzma.a(LzmaDec.o)
 .ARM.attributes
                0x000010ba       0x35 lib/lzo/liblzo.a(lzo1x_decompress.o)
 .ARM.attributes
                0x000010ef       0x35 arch/arm/cpu/aml_meson/m1/libm1.a(timer.o)
 .ARM.attributes
                0x00001124       0x35 arch/arm/cpu/aml_meson/m1/libm1.a(soc.o)
 .ARM.attributes
                0x00001159       0x35 arch/arm/cpu/aml_meson/m1/libm1.a(board.o)
 .ARM.attributes
                0x0000118e       0x35 arch/arm/cpu/aml_meson/m1/libm1.a(sdio.o)
 .ARM.attributes
                0x000011c3       0x35 arch/arm/cpu/aml_meson/m1/libm1.a(serial.o)
 .ARM.attributes
                0x000011f8       0x35 arch/arm/cpu/aml_meson/m1/libm1.a(clock.o)
 .ARM.attributes
                0x0000122d       0x35 arch/arm/cpu/aml_meson/m1/libm1.a(pinmux.o)
 .ARM.attributes
                0x00001262       0x35 arch/arm/cpu/aml_meson/m1/libm1.a(gpio.o)
 .ARM.attributes
                0x00001297       0x35 arch/arm/cpu/aml_meson/m1/libm1.a(tcon.o)
 .ARM.attributes
                0x000012cc       0x35 arch/arm/cpu/aml_meson/m1/libm1.a(osd_hw.o)
 .ARM.attributes
                0x00001301       0x35 arch/arm/cpu/aml_meson/m1/libm1.a(canvas.o)
 .ARM.attributes
                0x00001336       0x35 arch/arm/lib/libarm.a(bootm.o)
 .ARM.attributes
                0x0000136b       0x35 arch/arm/lib/libarm.a(reset.o)
 .ARM.attributes
                0x000013a0       0x35 arch/arm/lib/libarm.a(kgdb.o)
 .ARM.attributes
                0x000013d5       0x35 fs/fat/libfat.a(fat.o)
 .ARM.attributes
                0x0000140a       0x35 fs/ext2/libext2fs.a(ext2fs.o)
 .ARM.attributes
                0x0000143f       0x35 fs/ext2/libext2fs.a(dev.o)
 .ARM.attributes
                0x00001474       0x35 fs/ubifs/libubifs.a(ubifs.o)
 .ARM.attributes
                0x000014a9       0x35 fs/ubifs/libubifs.a(super.o)
 .ARM.attributes
                0x000014de       0x35 fs/ubifs/libubifs.a(sb.o)
 .ARM.attributes
                0x00001513       0x35 fs/ubifs/libubifs.a(master.o)
 .ARM.attributes
                0x00001548       0x35 fs/ubifs/libubifs.a(lpt.o)
 .ARM.attributes
                0x0000157d       0x35 fs/ubifs/libubifs.a(lpt_commit.o)
 .ARM.attributes
                0x000015b2       0x35 fs/ubifs/libubifs.a(scan.o)
 .ARM.attributes
                0x000015e7       0x35 fs/ubifs/libubifs.a(lprops.o)
 .ARM.attributes
                0x0000161c       0x35 fs/ubifs/libubifs.a(tnc.o)
 .ARM.attributes
                0x00001651       0x35 fs/ubifs/libubifs.a(tnc_misc.o)
 .ARM.attributes
                0x00001686       0x35 fs/ubifs/libubifs.a(crc16.o)
 .ARM.attributes
                0x000016bb       0x35 fs/ubifs/libubifs.a(budget.o)
 .ARM.attributes
                0x000016f0       0x35 fs/ubifs/libubifs.a(orphan.o)
 .ARM.attributes
                0x00001725       0x35 fs/ubifs/libubifs.a(recovery.o)
 .ARM.attributes
                0x0000175a       0x35 fs/ubifs/libubifs.a(replay.o)
 .ARM.attributes
                0x0000178f       0x35 fs/ubifs/libubifs.a(io.o)
 .ARM.attributes
                0x000017c4       0x35 fs/ubifs/libubifs.a(log.o)
 .ARM.attributes
                0x000017f9       0x35 disk/libdisk.a(part.o)
 .ARM.attributes
                0x0000182e       0x35 disk/libdisk.a(part_dos.o)
 .ARM.attributes
                0x00001863       0x35 drivers/mmc/libmmc.a(aml_sd_mmc.o)
 .ARM.attributes
                0x00001898       0x35 drivers/mtd/libmtd.a(mtdcore.o)
 .ARM.attributes
                0x000018cd       0x35 drivers/mtd/libmtd.a(mtdpart.o)
 .ARM.attributes
                0x00001902       0x35 drivers/mtd/nand/libnand.a(nand_util.o)
 .ARM.attributes
                0x00001937       0x35 drivers/mtd/ubi/libubi.a(build.o)
 .ARM.attributes
                0x0000196c       0x35 drivers/mtd/ubi/libubi.a(vtbl.o)
 .ARM.attributes
                0x000019a1       0x35 drivers/mtd/ubi/libubi.a(vmt.o)
 .ARM.attributes
                0x000019d6       0x35 drivers/mtd/ubi/libubi.a(upd.o)
 .ARM.attributes
                0x00001a0b       0x35 drivers/mtd/ubi/libubi.a(kapi.o)
 .ARM.attributes
                0x00001a40       0x35 drivers/mtd/ubi/libubi.a(eba.o)
 .ARM.attributes
                0x00001a75       0x35 drivers/mtd/ubi/libubi.a(io.o)
 .ARM.attributes
                0x00001aaa       0x35 drivers/mtd/ubi/libubi.a(wl.o)
 .ARM.attributes
                0x00001adf       0x35 drivers/mtd/ubi/libubi.a(scan.o)
 .ARM.attributes
                0x00001b14       0x35 drivers/mtd/ubi/libubi.a(crc32.o)
 .ARM.attributes
                0x00001b49       0x35 drivers/mtd/ubi/libubi.a(misc.o)
 .ARM.attributes
                0x00001b7e       0x35 drivers/mtd/spi/libspi_flash.a(spi_flash_aml.o)
 .ARM.attributes
                0x00001bb3       0x35 drivers/mtd/spi/libspi_flash.a(macronix.o)
 .ARM.attributes
                0x00001be8       0x35 drivers/mtd/spi/libspi_flash.a(sst.o)
 .ARM.attributes
                0x00001c1d       0x35 drivers/mtd/spi/libspi_flash.a(winbond.o)
 .ARM.attributes
                0x00001c52       0x35 drivers/spi/libspi.a(amlogic_spi_a.o)
 .ARM.attributes
                0x00001c87       0x35 drivers/usb/host/libusb_host.a(dwc_otg_hcd.o)
 .ARM.attributes
                0x00001cbc       0x35 common/libcommon.a(devfont.o)
 .ARM.attributes
                0x00001cf1       0x35 lib/libgeneric.a(rbtree.o)
 .ARM.attributes
                0x00001d26       0x35 arch/arm/cpu/aml_meson/libaml_meson.a(cpu.o)
 .ARM.attributes
                0x00001d5b       0x35 arch/arm/cpu/aml_meson/m1/libm1.a(usb.o)
 .ARM.attributes
                0x00001d90       0x1a /opt/toolchains/arm-mlogic/bin/../lib/gcc/arm-none-eabi/4.4.1/libgcc.a(_udivsi3.o)
 .ARM.attributes
                0x00001daa       0x1a /opt/toolchains/arm-mlogic/bin/../lib/gcc/arm-none-eabi/4.4.1/libgcc.a(_divsi3.o)
 .ARM.attributes
                0x00001dc4       0x18 /opt/toolchains/arm-mlogic/bin/../lib/gcc/arm-none-eabi/4.4.1/libgcc.a(_dvmd_tls.o)
 .ARM.attributes
                0x00001ddc       0x1a /opt/toolchains/arm-mlogic/bin/../lib/gcc/arm-none-eabi/4.4.1/libgcc.a(_lshrdi3.o)
 .ARM.attributes
                0x00001df6       0x1a /opt/toolchains/arm-mlogic/bin/../lib/gcc/arm-none-eabi/4.4.1/libgcc.a(_ashldi3.o)
 .ARM.attributes
                0x00001e10       0x1a /opt/toolchains/arm-mlogic/bin/../lib/gcc/arm-none-eabi/4.4.1/libgcc.a(_aeabi_ldivmod.o)
 .ARM.attributes
                0x00001e2a       0x1a /opt/toolchains/arm-mlogic/bin/../lib/gcc/arm-none-eabi/4.4.1/libgcc.a(_aeabi_uldivmod.o)
 .ARM.attributes
                0x00001e44       0x32 /opt/toolchains/arm-mlogic/bin/../lib/gcc/arm-none-eabi/4.4.1/libgcc.a(bpabi.o)
 .ARM.attributes
                0x00001e76       0x32 /opt/toolchains/arm-mlogic/bin/../lib/gcc/arm-none-eabi/4.4.1/libgcc.a(_divdi3.o)
 .ARM.attributes
                0x00001ea8       0x32 /opt/toolchains/arm-mlogic/bin/../lib/gcc/arm-none-eabi/4.4.1/libgcc.a(_udivdi3.o)
 .ARM.attributes
                0x00001eda       0x1a /opt/toolchains/arm-mlogic/bin/../lib/gcc/arm-none-eabi/4.4.1/libgcc.a(_clzsi2.o)

.comment        0x00000000     0x1784
 .comment       0x00000000       0x2b arch/arm/lib/libarm.a(board.o)
 .comment       0x0000002b       0x2b arch/arm/lib/libarm.a(cache.o)
 .comment       0x00000056       0x2b arch/arm/lib/libarm.a(cache-cp15.o)
 .comment       0x00000081       0x2b arch/arm/lib/libarm.a(interrupts.o)
 .comment       0x000000ac       0x2b drivers/i2c/libi2c.a(aml_i2c.o)
 .comment       0x000000d7       0x2b drivers/mmc/libmmc.a(mmc.o)
 .comment       0x00000102       0x2b drivers/mtd/nand/libnand.a(m1_nand.o)
 .comment       0x0000012d       0x2b drivers/mtd/nand/libnand.a(aml_nand.o)
 .comment       0x00000158       0x2b drivers/mtd/nand/libnand.a(nand_base.o)
 .comment       0x00000183       0x2b drivers/mtd/nand/libnand.a(nand_bbt.o)
 .comment       0x000001ae       0x2b drivers/mtd/nand/libnand.a(nand_ecc.o)
 .comment       0x000001d9       0x2b drivers/mtd/nand/libnand.a(nand_ids.o)
 .comment       0x00000204       0x2b drivers/rtc/librtc.a(aml_rtc.o)
 .comment       0x0000022f       0x2b drivers/rtc/librtc.a(rtc-lib.o)
 .comment       0x0000025a       0x2b common/libcommon.a(cmd_autoscript.o)
 .comment       0x00000285       0x2b common/libcommon.a(cmd_bdinfo.o)
 .comment       0x000002b0       0x2b common/libcommon.a(cmd_bmp.o)
 .comment       0x000002db       0x2b common/libcommon.a(cmd_boot.o)
 .comment       0x00000306       0x2b common/libcommon.a(cmd_bootm.o)
 .comment       0x00000331       0x2b common/libcommon.a(cmd_console.o)
 .comment       0x0000035c       0x2b common/libcommon.a(cmd_echo.o)
 .comment       0x00000387       0x2b common/libcommon.a(cmd_exit.o)
 .comment       0x000003b2       0x2b common/libcommon.a(cmd_ext2.o)
 .comment       0x000003dd       0x2b common/libcommon.a(cmd_fat.o)
 .comment       0x00000408       0x2b common/libcommon.a(cmd_help.o)
 .comment       0x00000433       0x2b common/libcommon.a(cmd_itest.o)
 .comment       0x0000045e       0x2b common/libcommon.a(cmd_load.o)
 .comment       0x00000489       0x2b common/libcommon.a(cmd_mem.o)
 .comment       0x000004b4       0x2b common/libcommon.a(cmd_misc.o)
 .comment       0x000004df       0x2b common/libcommon.a(cmd_mmc.o)
 .comment       0x0000050a       0x2b common/libcommon.a(cmd_mtdparts.o)
 .comment       0x00000535       0x2b common/libcommon.a(cmd_nand.o)
 .comment       0x00000560       0x2b common/libcommon.a(cmd_nvedit.o)
 .comment       0x0000058b       0x2b common/libcommon.a(cmd_sf.o)
 .comment       0x000005b6       0x2b common/libcommon.a(cmd_source.o)
 .comment       0x000005e1       0x2b common/libcommon.a(cmd_test.o)
 .comment       0x0000060c       0x2b common/libcommon.a(cmd_ubi.o)
 .comment       0x00000637       0x2b common/libcommon.a(cmd_ubifs.o)
 .comment       0x00000662       0x2b common/libcommon.a(cmd_usb.o)
 .comment       0x0000068d       0x2b common/libcommon.a(cmd_version.o)
 .comment       0x000006b8       0x2b common/libcommon.a(cmd_ximg.o)
 .comment       0x000006e3       0x2b common/libcommon.a(command.o)
 .comment       0x0000070e       0x2b common/libcommon.a(console.o)
 .comment       0x00000739       0x2b common/libcommon.a(dlmalloc.o)
 .comment       0x00000764       0x2b common/libcommon.a(env_common.o)
 .comment       0x0000078f       0x2b common/libcommon.a(env_nand.o)
 .comment       0x000007ba       0x2b common/libcommon.a(exports.o)
 .comment       0x000007e5       0x2b common/libcommon.a(hush.o)
 .comment       0x00000810       0x2b common/libcommon.a(image.o)
 .comment       0x0000083b       0x2b common/libcommon.a(kgdb.o)
 .comment       0x00000866       0x2b common/libcommon.a(kgdb_stubs.o)
 .comment       0x00000891       0x2b common/libcommon.a(lcd_aml.o)
 .comment       0x000008bc       0x2b common/libcommon.a(main.o)
 .comment       0x000008e7       0x2b common/libcommon.a(s_record.o)
 .comment       0x00000912       0x2b common/libcommon.a(stdio.o)
 .comment       0x0000093d       0x2b common/libcommon.a(usb.o)
 .comment       0x00000968       0x2b common/libcommon.a(usb_storage.o)
 .comment       0x00000993       0x2b common/libcommon.a(xyzModem.o)
 .comment       0x000009be       0x2b board/amlogic/8726m_mid_refb04/lib8726m_mid_refb04.a(8726m_mid_refb04.o)
 .comment       0x000009e9       0x2b board/amlogic/8726m_mid_refb04/lib8726m_mid_refb04.a(lcd.o)
 .comment       0x00000a14       0x2b board/amlogic/8726m_mid_refb04/lib8726m_mid_refb04.a(saradc.o)
 .comment       0x00000a3f       0x2b board/amlogic/8726m_mid_refb04/lib8726m_mid_refb04.a(powerkey.o)
 .comment       0x00000a6a       0x2b board/amlogic/8726m_mid_refb04/lib8726m_mid_refb04.a(upgrade.o)
 .comment       0x00000a95       0x2b board/amlogic/8726m_mid_refb04/lib8726m_mid_refb04.a(battery_charging.o)
 .comment       0x00000ac0       0x2b board/amlogic/8726m_mid_refb04/lib8726m_mid_refb04.a(debug.o)
 .comment       0x00000aeb       0x2b lib/libgeneric.a(crc16.o)
 .comment       0x00000b16       0x2b lib/libgeneric.a(crc32.o)
 .comment       0x00000b41       0x2b lib/libgeneric.a(ctype.o)
 .comment       0x00000b6c       0x2b lib/libgeneric.a(display_options.o)
 .comment       0x00000b97       0x2b lib/libgeneric.a(div64.o)
 .comment       0x00000bc2       0x2b lib/libgeneric.a(gunzip.o)
 .comment       0x00000bed       0x2b lib/libgeneric.a(net_utils.o)
 .comment       0x00000c18       0x2b lib/libgeneric.a(string.o)
 .comment       0x00000c43       0x2b lib/libgeneric.a(time.o)
 .comment       0x00000c6e       0x2b lib/libgeneric.a(vsprintf.o)
 .comment       0x00000c99       0x2b lib/libgeneric.a(zlib.o)
 .comment       0x00000cc4       0x2b lib/lzma/liblzma.a(LzmaTools.o)
 .comment       0x00000cef       0x2b lib/lzma/liblzma.a(LzmaDec.o)
 .comment       0x00000d1a       0x2b lib/lzo/liblzo.a(lzo1x_decompress.o)
 .comment       0x00000d45       0x2b arch/arm/cpu/aml_meson/m1/libm1.a(timer.o)
 .comment       0x00000d70       0x2b arch/arm/cpu/aml_meson/m1/libm1.a(soc.o)
 .comment       0x00000d9b       0x2b arch/arm/cpu/aml_meson/m1/libm1.a(board.o)
 .comment       0x00000dc6       0x2b arch/arm/cpu/aml_meson/m1/libm1.a(sdio.o)
 .comment       0x00000df1       0x2b arch/arm/cpu/aml_meson/m1/libm1.a(serial.o)
 .comment       0x00000e1c       0x2b arch/arm/cpu/aml_meson/m1/libm1.a(clock.o)
 .comment       0x00000e47       0x2b arch/arm/cpu/aml_meson/m1/libm1.a(pinmux.o)
 .comment       0x00000e72       0x2b arch/arm/cpu/aml_meson/m1/libm1.a(gpio.o)
 .comment       0x00000e9d       0x2b arch/arm/cpu/aml_meson/m1/libm1.a(tcon.o)
 .comment       0x00000ec8       0x2b arch/arm/cpu/aml_meson/m1/libm1.a(osd_hw.o)
 .comment       0x00000ef3       0x2b arch/arm/cpu/aml_meson/m1/libm1.a(canvas.o)
 .comment       0x00000f1e       0x2b arch/arm/lib/libarm.a(bootm.o)
 .comment       0x00000f49       0x2b arch/arm/lib/libarm.a(reset.o)
 .comment       0x00000f74       0x2b arch/arm/lib/libarm.a(kgdb.o)
 .comment       0x00000f9f       0x2b fs/fat/libfat.a(fat.o)
 .comment       0x00000fca       0x2b fs/ext2/libext2fs.a(ext2fs.o)
 .comment       0x00000ff5       0x2b fs/ext2/libext2fs.a(dev.o)
 .comment       0x00001020       0x2b fs/ubifs/libubifs.a(ubifs.o)
 .comment       0x0000104b       0x2b fs/ubifs/libubifs.a(super.o)
 .comment       0x00001076       0x2b fs/ubifs/libubifs.a(sb.o)
 .comment       0x000010a1       0x2b fs/ubifs/libubifs.a(master.o)
 .comment       0x000010cc       0x2b fs/ubifs/libubifs.a(lpt.o)
 .comment       0x000010f7       0x2b fs/ubifs/libubifs.a(lpt_commit.o)
 .comment       0x00001122       0x2b fs/ubifs/libubifs.a(scan.o)
 .comment       0x0000114d       0x2b fs/ubifs/libubifs.a(lprops.o)
 .comment       0x00001178       0x2b fs/ubifs/libubifs.a(tnc.o)
 .comment       0x000011a3       0x2b fs/ubifs/libubifs.a(tnc_misc.o)
 .comment       0x000011ce       0x2b fs/ubifs/libubifs.a(crc16.o)
 .comment       0x000011f9       0x2b fs/ubifs/libubifs.a(budget.o)
 .comment       0x00001224       0x2b fs/ubifs/libubifs.a(orphan.o)
 .comment       0x0000124f       0x2b fs/ubifs/libubifs.a(recovery.o)
 .comment       0x0000127a       0x2b fs/ubifs/libubifs.a(replay.o)
 .comment       0x000012a5       0x2b fs/ubifs/libubifs.a(io.o)
 .comment       0x000012d0       0x2b fs/ubifs/libubifs.a(log.o)
 .comment       0x000012fb       0x2b disk/libdisk.a(part.o)
 .comment       0x00001326       0x2b disk/libdisk.a(part_dos.o)
 .comment       0x00001351       0x2b drivers/mmc/libmmc.a(aml_sd_mmc.o)
 .comment       0x0000137c       0x2b drivers/mtd/libmtd.a(mtdcore.o)
 .comment       0x000013a7       0x2b drivers/mtd/libmtd.a(mtdpart.o)
 .comment       0x000013d2       0x2b drivers/mtd/nand/libnand.a(nand_util.o)
 .comment       0x000013fd       0x2b drivers/mtd/ubi/libubi.a(build.o)
 .comment       0x00001428       0x2b drivers/mtd/ubi/libubi.a(vtbl.o)
 .comment       0x00001453       0x2b drivers/mtd/ubi/libubi.a(vmt.o)
 .comment       0x0000147e       0x2b drivers/mtd/ubi/libubi.a(upd.o)
 .comment       0x000014a9       0x2b drivers/mtd/ubi/libubi.a(kapi.o)
 .comment       0x000014d4       0x2b drivers/mtd/ubi/libubi.a(eba.o)
 .comment       0x000014ff       0x2b drivers/mtd/ubi/libubi.a(io.o)
 .comment       0x0000152a       0x2b drivers/mtd/ubi/libubi.a(wl.o)
 .comment       0x00001555       0x2b drivers/mtd/ubi/libubi.a(scan.o)
 .comment       0x00001580       0x2b drivers/mtd/ubi/libubi.a(crc32.o)
 .comment       0x000015ab       0x2b drivers/mtd/ubi/libubi.a(misc.o)
 .comment       0x000015d6       0x2b drivers/mtd/spi/libspi_flash.a(spi_flash_aml.o)
 .comment       0x00001601       0x2b drivers/mtd/spi/libspi_flash.a(macronix.o)
 .comment       0x0000162c       0x2b drivers/mtd/spi/libspi_flash.a(sst.o)
 .comment       0x00001657       0x2b drivers/mtd/spi/libspi_flash.a(winbond.o)
 .comment       0x00001682       0x2b drivers/spi/libspi.a(amlogic_spi_a.o)
 .comment       0x000016ad       0x2b drivers/usb/host/libusb_host.a(dwc_otg_hcd.o)
 .comment       0x000016d8       0x2b common/libcommon.a(devfont.o)
 .comment       0x00001703       0x2b lib/libgeneric.a(rbtree.o)
 .comment       0x0000172e       0x2b arch/arm/cpu/aml_meson/libaml_meson.a(cpu.o)
 .comment       0x00001759       0x2b arch/arm/cpu/aml_meson/m1/libm1.a(usb.o)

.debug_line     0x00000000    0x11fd9
 .debug_line    0x00000000       0x98 arch/arm/cpu/aml_meson/start.o
 .debug_line    0x00000098       0x69 arch/arm/lib/libarm.a(cache_init.o)
 .debug_line    0x00000101      0x169 arch/arm/lib/libarm.a(board.o)
 .debug_line    0x0000026a       0x99 arch/arm/lib/libarm.a(cache.o)
 .debug_line    0x00000303       0xff arch/arm/lib/libarm.a(cache-cp15.o)
 .debug_line    0x00000402       0xe7 arch/arm/lib/libarm.a(interrupts.o)
 .debug_line    0x000004e9       0x89 arch/arm/lib/libarm.a(cache_v7.o)
 .debug_line    0x00000572      0x276 drivers/i2c/libi2c.a(aml_i2c.o)
 .debug_line    0x000007e8      0x411 drivers/mmc/libmmc.a(mmc.o)
 .debug_line    0x00000bf9      0x189 drivers/mtd/nand/libnand.a(m1_nand.o)
 .debug_line    0x00000d82      0x8e6 drivers/mtd/nand/libnand.a(aml_nand.o)
 .debug_line    0x00001668      0x773 drivers/mtd/nand/libnand.a(nand_base.o)
 .debug_line    0x00001ddb      0x393 drivers/mtd/nand/libnand.a(nand_bbt.o)
 .debug_line    0x0000216e      0x117 drivers/mtd/nand/libnand.a(nand_ecc.o)
 .debug_line    0x00002285       0x59 drivers/mtd/nand/libnand.a(nand_ids.o)
 .debug_line    0x000022de       0xf9 drivers/rtc/librtc.a(aml_rtc.o)
 .debug_line    0x000023d7       0x9b drivers/rtc/librtc.a(rtc-lib.o)
 .debug_line    0x00002472      0x14b common/libcommon.a(cmd_autoscript.o)
 .debug_line    0x000025bd       0xfb common/libcommon.a(cmd_bdinfo.o)
 .debug_line    0x000026b8      0x12d common/libcommon.a(cmd_bmp.o)
 .debug_line    0x000027e5       0xa3 common/libcommon.a(cmd_boot.o)
 .debug_line    0x00002888      0x2cf common/libcommon.a(cmd_bootm.o)
 .debug_line    0x00002b57       0xb7 common/libcommon.a(cmd_console.o)
 .debug_line    0x00002c0e       0x76 common/libcommon.a(cmd_echo.o)
 .debug_line    0x00002c84       0x64 common/libcommon.a(cmd_exit.o)
 .debug_line    0x00002ce8      0x11b common/libcommon.a(cmd_ext2.o)
 .debug_line    0x00002e03      0x108 common/libcommon.a(cmd_fat.o)
 .debug_line    0x00002f0b       0x64 common/libcommon.a(cmd_help.o)
 .debug_line    0x00002f6f       0xe5 common/libcommon.a(cmd_itest.o)
 .debug_line    0x00003054      0x2d9 common/libcommon.a(cmd_load.o)
 .debug_line    0x0000332d      0x1cf common/libcommon.a(cmd_mem.o)
 .debug_line    0x000034fc       0x97 common/libcommon.a(cmd_misc.o)
 .debug_line    0x00003593      0x130 common/libcommon.a(cmd_mmc.o)
 .debug_line    0x000036c3      0x687 common/libcommon.a(cmd_mtdparts.o)
 .debug_line    0x00003d4a      0x3f9 common/libcommon.a(cmd_nand.o)
 .debug_line    0x00004143      0x23c common/libcommon.a(cmd_nvedit.o)
 .debug_line    0x0000437f      0x154 common/libcommon.a(cmd_sf.o)
 .debug_line    0x000044d3      0x147 common/libcommon.a(cmd_source.o)
 .debug_line    0x0000461a       0xc6 common/libcommon.a(cmd_test.o)
 .debug_line    0x000046e0      0x359 common/libcommon.a(cmd_ubi.o)
 .debug_line    0x00004a39       0xc1 common/libcommon.a(cmd_ubifs.o)
 .debug_line    0x00004afa      0x2e8 common/libcommon.a(cmd_usb.o)
 .debug_line    0x00004de2       0x66 common/libcommon.a(cmd_version.o)
 .debug_line    0x00004e48      0x164 common/libcommon.a(cmd_ximg.o)
 .debug_line    0x00004fac      0x190 common/libcommon.a(command.o)
 .debug_line    0x0000513c      0x221 common/libcommon.a(console.o)
 .debug_line    0x0000535d      0x2af common/libcommon.a(dlmalloc.o)
 .debug_line    0x0000560c      0x154 common/libcommon.a(env_common.o)
 .debug_line    0x00005760      0x1c0 common/libcommon.a(env_nand.o)
 .debug_line    0x00005920      0x121 common/libcommon.a(exports.o)
 .debug_line    0x00005a41      0x4ff common/libcommon.a(hush.o)
 .debug_line    0x00005f40      0x2bc common/libcommon.a(image.o)
 .debug_line    0x000061fc      0x211 common/libcommon.a(kgdb.o)
 .debug_line    0x0000640d       0x7d common/libcommon.a(kgdb_stubs.o)
 .debug_line    0x0000648a      0x358 common/libcommon.a(lcd_aml.o)
 .debug_line    0x000067e2      0x1b9 common/libcommon.a(main.o)
 .debug_line    0x0000699b       0xba common/libcommon.a(s_record.o)
 .debug_line    0x00006a55      0x138 common/libcommon.a(stdio.o)
 .debug_line    0x00006b8d      0x39d common/libcommon.a(usb.o)
 .debug_line    0x00006f2a      0x3eb common/libcommon.a(usb_storage.o)
 .debug_line    0x00007315      0x1db common/libcommon.a(xyzModem.o)
 .debug_line    0x000074f0      0x66f board/amlogic/8726m_mid_refb04/lib8726m_mid_refb04.a(8726m_mid_refb04.o)
 .debug_line    0x00007b5f      0x1a5 board/amlogic/8726m_mid_refb04/lib8726m_mid_refb04.a(lcd.o)
 .debug_line    0x00007d04       0xc8 board/amlogic/8726m_mid_refb04/lib8726m_mid_refb04.a(saradc.o)
 .debug_line    0x00007dcc       0xa1 board/amlogic/8726m_mid_refb04/lib8726m_mid_refb04.a(powerkey.o)
 .debug_line    0x00007e6d      0x293 board/amlogic/8726m_mid_refb04/lib8726m_mid_refb04.a(upgrade.o)
 .debug_line    0x00008100       0x87 board/amlogic/8726m_mid_refb04/lib8726m_mid_refb04.a(battery_charging.o)
 .debug_line    0x00008187      0x12c board/amlogic/8726m_mid_refb04/lib8726m_mid_refb04.a(debug.o)
 .debug_line    0x000082b3       0x97 lib/libgeneric.a(crc16.o)
 .debug_line    0x0000834a       0xee lib/libgeneric.a(crc32.o)
 .debug_line    0x00008438       0x28 lib/libgeneric.a(ctype.o)
 .debug_line    0x00008460      0x101 lib/libgeneric.a(display_options.o)
 .debug_line    0x00008561       0xa7 lib/libgeneric.a(div64.o)
 .debug_line    0x00008608       0x96 lib/libgeneric.a(gunzip.o)
 .debug_line    0x0000869e      0x100 lib/libgeneric.a(net_utils.o)
 .debug_line    0x0000879e      0x189 lib/libgeneric.a(string.o)
 .debug_line    0x00008927       0x94 lib/libgeneric.a(time.o)
 .debug_line    0x000089bb      0x297 lib/libgeneric.a(vsprintf.o)
 .debug_line    0x00008c52      0x4f0 lib/libgeneric.a(zlib.o)
 .debug_line    0x00009142      0x100 lib/lzma/liblzma.a(LzmaTools.o)
 .debug_line    0x00009242      0x303 lib/lzma/liblzma.a(LzmaDec.o)
 .debug_line    0x00009545      0x25a lib/lzo/liblzo.a(lzo1x_decompress.o)
 .debug_line    0x0000979f       0x75 arch/arm/cpu/aml_meson/m1/libm1.a(timer.o)
 .debug_line    0x00009814       0x5f arch/arm/cpu/aml_meson/m1/libm1.a(soc.o)
 .debug_line    0x00009873       0xde arch/arm/cpu/aml_meson/m1/libm1.a(board.o)
 .debug_line    0x00009951       0x91 arch/arm/cpu/aml_meson/m1/libm1.a(sdio.o)
 .debug_line    0x000099e2      0x164 arch/arm/cpu/aml_meson/m1/libm1.a(serial.o)
 .debug_line    0x00009b46       0xb5 arch/arm/cpu/aml_meson/m1/libm1.a(clock.o)
 .debug_line    0x00009bfb       0x7b arch/arm/cpu/aml_meson/m1/libm1.a(pinmux.o)
 .debug_line    0x00009c76       0xa3 arch/arm/cpu/aml_meson/m1/libm1.a(gpio.o)
 .debug_line    0x00009d19      0x160 arch/arm/cpu/aml_meson/m1/libm1.a(tcon.o)
 .debug_line    0x00009e79      0x193 arch/arm/cpu/aml_meson/m1/libm1.a(osd_hw.o)
 .debug_line    0x0000a00c       0xf4 arch/arm/cpu/aml_meson/m1/libm1.a(canvas.o)
 .debug_line    0x0000a100      0x14d arch/arm/lib/libarm.a(bootm.o)
 .debug_line    0x0000a24d       0x63 arch/arm/lib/libarm.a(reset.o)
 .debug_line    0x0000a2b0      0x13b arch/arm/lib/libarm.a(kgdb.o)
 .debug_line    0x0000a3eb      0x321 fs/fat/libfat.a(fat.o)
 .debug_line    0x0000a70c      0x237 fs/ext2/libext2fs.a(ext2fs.o)
 .debug_line    0x0000a943      0x103 fs/ext2/libext2fs.a(dev.o)
 .debug_line    0x0000aa46      0x395 fs/ubifs/libubifs.a(ubifs.o)
 .debug_line    0x0000addb      0x5a9 fs/ubifs/libubifs.a(super.o)
 .debug_line    0x0000b384      0x20e fs/ubifs/libubifs.a(sb.o)
 .debug_line    0x0000b592      0x1fb fs/ubifs/libubifs.a(master.o)
 .debug_line    0x0000b78d      0x4ba fs/ubifs/libubifs.a(lpt.o)
 .debug_line    0x0000bc47      0x1b0 fs/ubifs/libubifs.a(lpt_commit.o)
 .debug_line    0x0000bdf7      0x233 fs/ubifs/libubifs.a(scan.o)
 .debug_line    0x0000c02a      0x323 fs/ubifs/libubifs.a(lprops.o)
 .debug_line    0x0000c34d      0x8aa fs/ubifs/libubifs.a(tnc.o)
 .debug_line    0x0000cbf7      0x2d4 fs/ubifs/libubifs.a(tnc_misc.o)
 .debug_line    0x0000cecb       0xbb fs/ubifs/libubifs.a(crc16.o)
 .debug_line    0x0000cf86      0x182 fs/ubifs/libubifs.a(budget.o)
 .debug_line    0x0000d108      0x217 fs/ubifs/libubifs.a(orphan.o)
 .debug_line    0x0000d31f      0x477 fs/ubifs/libubifs.a(recovery.o)
 .debug_line    0x0000d796      0x444 fs/ubifs/libubifs.a(replay.o)
 .debug_line    0x0000dbda      0x1c1 fs/ubifs/libubifs.a(io.o)
 .debug_line    0x0000dd9b      0x184 fs/ubifs/libubifs.a(log.o)
 .debug_line    0x0000df1f      0x15f disk/libdisk.a(part.o)
 .debug_line    0x0000e07e      0x16e disk/libdisk.a(part_dos.o)
 .debug_line    0x0000e1ec      0x209 drivers/mmc/libmmc.a(aml_sd_mmc.o)
 .debug_line    0x0000e3f5      0x145 drivers/mtd/libmtd.a(mtdcore.o)
 .debug_line    0x0000e53a      0x284 drivers/mtd/libmtd.a(mtdpart.o)
 .debug_line    0x0000e7be      0x461 drivers/mtd/nand/libnand.a(nand_util.o)
 .debug_line    0x0000ec1f      0x31d drivers/mtd/ubi/libubi.a(build.o)
 .debug_line    0x0000ef3c      0x3aa drivers/mtd/ubi/libubi.a(vtbl.o)
 .debug_line    0x0000f2e6      0x2ae drivers/mtd/ubi/libubi.a(vmt.o)
 .debug_line    0x0000f594      0x255 drivers/mtd/ubi/libubi.a(upd.o)
 .debug_line    0x0000f7e9      0x276 drivers/mtd/ubi/libubi.a(kapi.o)
 .debug_line    0x0000fa5f      0x52c drivers/mtd/ubi/libubi.a(eba.o)
 .debug_line    0x0000ff8b      0x324 drivers/mtd/ubi/libubi.a(io.o)
 .debug_line    0x000102af      0x540 drivers/mtd/ubi/libubi.a(wl.o)
 .debug_line    0x000107ef      0x522 drivers/mtd/ubi/libubi.a(scan.o)
 .debug_line    0x00010d11       0xca drivers/mtd/ubi/libubi.a(crc32.o)
 .debug_line    0x00010ddb      0x1b9 drivers/mtd/ubi/libubi.a(misc.o)
 .debug_line    0x00010f94      0x15f drivers/mtd/spi/libspi_flash.a(spi_flash_aml.o)
 .debug_line    0x000110f3      0x11d drivers/mtd/spi/libspi_flash.a(macronix.o)
 .debug_line    0x00011210      0x113 drivers/mtd/spi/libspi_flash.a(sst.o)
 .debug_line    0x00011323      0x11c drivers/mtd/spi/libspi_flash.a(winbond.o)
 .debug_line    0x0001143f       0xf2 drivers/spi/libspi.a(amlogic_spi_a.o)
 .debug_line    0x00011531      0x70b drivers/usb/host/libusb_host.a(dwc_otg_hcd.o)
 .debug_line    0x00011c3c      0x106 common/libcommon.a(devfont.o)
 .debug_line    0x00011d42      0x1ae lib/libgeneric.a(rbtree.o)
 .debug_line    0x00011ef0       0x41 arch/arm/cpu/aml_meson/libaml_meson.a(cpu.o)
 .debug_line    0x00011f31       0xa8 arch/arm/cpu/aml_meson/m1/libm1.a(usb.o)

.debug_info     0x00000000    0x936cd
 .debug_info    0x00000000       0x5a arch/arm/cpu/aml_meson/start.o
 .debug_info    0x0000005a       0x55 arch/arm/lib/libarm.a(cache_init.o)
 .debug_info    0x000000af      0x4bc arch/arm/lib/libarm.a(board.o)
 .debug_info    0x0000056b      0x31d arch/arm/lib/libarm.a(cache.o)
 .debug_info    0x00000888      0x299 arch/arm/lib/libarm.a(cache-cp15.o)
 .debug_info    0x00000b21      0x28a arch/arm/lib/libarm.a(interrupts.o)
 .debug_info    0x00000dab       0x53 arch/arm/lib/libarm.a(cache_v7.o)
 .debug_info    0x00000dfe      0xfce drivers/i2c/libi2c.a(aml_i2c.o)
 .debug_info    0x00001dcc     0x15d4 drivers/mmc/libmmc.a(mmc.o)
 .debug_info    0x000033a0     0x1786 drivers/mtd/nand/libnand.a(m1_nand.o)
 .debug_info    0x00004b26     0x336d drivers/mtd/nand/libnand.a(aml_nand.o)
 .debug_info    0x00007e93     0x35e0 drivers/mtd/nand/libnand.a(nand_base.o)
 .debug_info    0x0000b473     0x1fbc drivers/mtd/nand/libnand.a(nand_bbt.o)
 .debug_info    0x0000d42f      0x9e2 drivers/mtd/nand/libnand.a(nand_ecc.o)
 .debug_info    0x0000de11      0x152 drivers/mtd/nand/libnand.a(nand_ids.o)
 .debug_info    0x0000df63      0x442 drivers/rtc/librtc.a(aml_rtc.o)
 .debug_info    0x0000e3a5      0x38b drivers/rtc/librtc.a(rtc-lib.o)
 .debug_info    0x0000e730      0x4d5 common/libcommon.a(cmd_autoscript.o)
 .debug_info    0x0000ec05      0x401 common/libcommon.a(cmd_bdinfo.o)
 .debug_info    0x0000f006      0x5d7 common/libcommon.a(cmd_bmp.o)
 .debug_info    0x0000f5dd      0x2db common/libcommon.a(cmd_boot.o)
 .debug_info    0x0000f8b8     0x1244 common/libcommon.a(cmd_bootm.o)
 .debug_info    0x00010afc      0x393 common/libcommon.a(cmd_console.o)
 .debug_info    0x00010e8f      0x1ff common/libcommon.a(cmd_echo.o)
 .debug_info    0x0001108e      0x1d0 common/libcommon.a(cmd_exit.o)
 .debug_info    0x0001125e      0x56c common/libcommon.a(cmd_ext2.o)
 .debug_info    0x000117ca      0x5f0 common/libcommon.a(cmd_fat.o)
 .debug_info    0x00011dba      0x1ef common/libcommon.a(cmd_help.o)
 .debug_info    0x00011fa9      0x498 common/libcommon.a(cmd_itest.o)
 .debug_info    0x00012441      0xe33 common/libcommon.a(cmd_load.o)
 .debug_info    0x00013274      0xa34 common/libcommon.a(cmd_mem.o)
 .debug_info    0x00013ca8      0x1e8 common/libcommon.a(cmd_misc.o)
 .debug_info    0x00013e90      0x8bc common/libcommon.a(cmd_mmc.o)
 .debug_info    0x0001474c     0x23fc common/libcommon.a(cmd_mtdparts.o)
 .debug_info    0x00016b48     0x1be8 common/libcommon.a(cmd_nand.o)
 .debug_info    0x00018730      0xa63 common/libcommon.a(cmd_nvedit.o)
 .debug_info    0x00019193      0x746 common/libcommon.a(cmd_sf.o)
 .debug_info    0x000198d9      0x4d5 common/libcommon.a(cmd_source.o)
 .debug_info    0x00019dae      0x2eb common/libcommon.a(cmd_test.o)
 .debug_info    0x0001a099     0x1cc5 common/libcommon.a(cmd_ubi.o)
 .debug_info    0x0001bd5e      0x345 common/libcommon.a(cmd_ubifs.o)
 .debug_info    0x0001c0a3      0xff0 common/libcommon.a(cmd_usb.o)
 .debug_info    0x0001d093      0x1db common/libcommon.a(cmd_version.o)
 .debug_info    0x0001d26e      0x4c1 common/libcommon.a(cmd_ximg.o)
 .debug_info    0x0001d72f      0x91b common/libcommon.a(command.o)
 .debug_info    0x0001e04a      0xaeb common/libcommon.a(console.o)
 .debug_info    0x0001eb35      0xd27 common/libcommon.a(dlmalloc.o)
 .debug_info    0x0001f85c      0x500 common/libcommon.a(env_common.o)
 .debug_info    0x0001fd5c      0xd95 common/libcommon.a(env_nand.o)
 .debug_info    0x00020af1      0x33c common/libcommon.a(exports.o)
 .debug_info    0x00020e2d     0x190b common/libcommon.a(hush.o)
 .debug_info    0x00022738     0x12cf common/libcommon.a(image.o)
 .debug_info    0x00023a07      0x9d1 common/libcommon.a(kgdb.o)
 .debug_info    0x000243d8      0x11d common/libcommon.a(kgdb_stubs.o)
 .debug_info    0x000244f5     0x139e common/libcommon.a(lcd_aml.o)
 .debug_info    0x00025893      0x6c8 common/libcommon.a(main.o)
 .debug_info    0x00025f5b      0x18f common/libcommon.a(s_record.o)
 .debug_info    0x000260ea      0x60a common/libcommon.a(stdio.o)
 .debug_info    0x000266f4     0x184d common/libcommon.a(usb.o)
 .debug_info    0x00027f41     0x1611 common/libcommon.a(usb_storage.o)
 .debug_info    0x00029552      0x67f common/libcommon.a(xyzModem.o)
 .debug_info    0x00029bd1     0x2a9e board/amlogic/8726m_mid_refb04/lib8726m_mid_refb04.a(8726m_mid_refb04.o)
 .debug_info    0x0002c66f      0x9f8 board/amlogic/8726m_mid_refb04/lib8726m_mid_refb04.a(lcd.o)
 .debug_info    0x0002d067      0x23c board/amlogic/8726m_mid_refb04/lib8726m_mid_refb04.a(saradc.o)
 .debug_info    0x0002d2a3      0x11a board/amlogic/8726m_mid_refb04/lib8726m_mid_refb04.a(powerkey.o)
 .debug_info    0x0002d3bd      0x875 board/amlogic/8726m_mid_refb04/lib8726m_mid_refb04.a(upgrade.o)
 .debug_info    0x0002dc32      0x351 board/amlogic/8726m_mid_refb04/lib8726m_mid_refb04.a(battery_charging.o)
 .debug_info    0x0002df83      0x2ed board/amlogic/8726m_mid_refb04/lib8726m_mid_refb04.a(debug.o)
 .debug_info    0x0002e270      0x10c lib/libgeneric.a(crc16.o)
 .debug_info    0x0002e37c      0x26c lib/libgeneric.a(crc32.o)
 .debug_info    0x0002e5e8       0x52 lib/libgeneric.a(ctype.o)
 .debug_info    0x0002e63a      0x295 lib/libgeneric.a(display_options.o)
 .debug_info    0x0002e8cf      0x12b lib/libgeneric.a(div64.o)
 .debug_info    0x0002e9fa      0x3f9 lib/libgeneric.a(gunzip.o)
 .debug_info    0x0002edf3      0x12f lib/libgeneric.a(net_utils.o)
 .debug_info    0x0002ef22      0x8c0 lib/libgeneric.a(string.o)
 .debug_info    0x0002f7e2      0x16c lib/libgeneric.a(time.o)
 .debug_info    0x0002f94e      0x862 lib/libgeneric.a(vsprintf.o)
 .debug_info    0x000301b0     0x107c lib/libgeneric.a(zlib.o)
 .debug_info    0x0003122c      0x2a5 lib/lzma/liblzma.a(LzmaTools.o)
 .debug_info    0x000314d1     0x123f lib/lzma/liblzma.a(LzmaDec.o)
 .debug_info    0x00032710      0x854 lib/lzo/liblzo.a(lzo1x_decompress.o)
 .debug_info    0x00032f64      0x11e arch/arm/cpu/aml_meson/m1/libm1.a(timer.o)
 .debug_info    0x00033082       0xa2 arch/arm/cpu/aml_meson/m1/libm1.a(soc.o)
 .debug_info    0x00033124      0x262 arch/arm/cpu/aml_meson/m1/libm1.a(board.o)
 .debug_info    0x00033386      0x1ca arch/arm/cpu/aml_meson/m1/libm1.a(sdio.o)
 .debug_info    0x00033550      0x7ad arch/arm/cpu/aml_meson/m1/libm1.a(serial.o)
 .debug_info    0x00033cfd      0x1b2 arch/arm/cpu/aml_meson/m1/libm1.a(clock.o)
 .debug_info    0x00033eaf      0x1b0 arch/arm/cpu/aml_meson/m1/libm1.a(pinmux.o)
 .debug_info    0x0003405f      0x4ef arch/arm/cpu/aml_meson/m1/libm1.a(gpio.o)
 .debug_info    0x0003454e      0x821 arch/arm/cpu/aml_meson/m1/libm1.a(tcon.o)
 .debug_info    0x00034d6f      0xbd1 arch/arm/cpu/aml_meson/m1/libm1.a(osd_hw.o)
 .debug_info    0x00035940      0x2ba arch/arm/cpu/aml_meson/m1/libm1.a(canvas.o)
 .debug_info    0x00035bfa      0xb3f arch/arm/lib/libarm.a(bootm.o)
 .debug_info    0x00036739      0x1ad arch/arm/lib/libarm.a(reset.o)
 .debug_info    0x000368e6      0x514 arch/arm/lib/libarm.a(kgdb.o)
 .debug_info    0x00036dfa     0x1290 fs/fat/libfat.a(fat.o)
 .debug_info    0x0003808a      0xe56 fs/ext2/libext2fs.a(ext2fs.o)
 .debug_info    0x00038ee0      0x3b7 fs/ext2/libext2fs.a(dev.o)
 .debug_info    0x00039297     0x44c4 fs/ubifs/libubifs.a(ubifs.o)
 .debug_info    0x0003d75b     0x44ff fs/ubifs/libubifs.a(super.o)
 .debug_info    0x00041c5a     0x30ef fs/ubifs/libubifs.a(sb.o)
 .debug_info    0x00044d49     0x2f21 fs/ubifs/libubifs.a(master.o)
 .debug_info    0x00047c6a     0x4489 fs/ubifs/libubifs.a(lpt.o)
 .debug_info    0x0004c0f3     0x2dda fs/ubifs/libubifs.a(lpt_commit.o)
 .debug_info    0x0004eecd     0x3674 fs/ubifs/libubifs.a(scan.o)
 .debug_info    0x00052541     0x3b44 fs/ubifs/libubifs.a(lprops.o)
 .debug_info    0x00056085     0x5795 fs/ubifs/libubifs.a(tnc.o)
 .debug_info    0x0005b81a     0x355a fs/ubifs/libubifs.a(tnc_misc.o)
 .debug_info    0x0005ed74      0x15c fs/ubifs/libubifs.a(crc16.o)
 .debug_info    0x0005eed0     0x2d40 fs/ubifs/libubifs.a(budget.o)
 .debug_info    0x00061c10     0x3305 fs/ubifs/libubifs.a(orphan.o)
 .debug_info    0x00064f15     0x47a6 fs/ubifs/libubifs.a(recovery.o)
 .debug_info    0x000696bb     0x4ad6 fs/ubifs/libubifs.a(replay.o)
 .debug_info    0x0006e191     0x3053 fs/ubifs/libubifs.a(io.o)
 .debug_info    0x000711e4     0x2d70 fs/ubifs/libubifs.a(log.o)
 .debug_info    0x00073f54      0x6a8 disk/libdisk.a(part.o)
 .debug_info    0x000745fc      0x725 disk/libdisk.a(part_dos.o)
 .debug_info    0x00074d21     0x1193 drivers/mmc/libmmc.a(aml_sd_mmc.o)
 .debug_info    0x00075eb4      0x9f2 drivers/mtd/libmtd.a(mtdcore.o)
 .debug_info    0x000768a6     0x15a4 drivers/mtd/libmtd.a(mtdpart.o)
 .debug_info    0x00077e4a     0x1d8c drivers/mtd/nand/libnand.a(nand_util.o)
 .debug_info    0x00079bd6     0x1bcc drivers/mtd/ubi/libubi.a(build.o)
 .debug_info    0x0007b7a2     0x20ef drivers/mtd/ubi/libubi.a(vtbl.o)
 .debug_info    0x0007d891     0x168f drivers/mtd/ubi/libubi.a(vmt.o)
 .debug_info    0x0007ef20     0x1672 drivers/mtd/ubi/libubi.a(upd.o)
 .debug_info    0x00080592     0x18e8 drivers/mtd/ubi/libubi.a(kapi.o)
 .debug_info    0x00081e7a     0x2a1a drivers/mtd/ubi/libubi.a(eba.o)
 .debug_info    0x00084894     0x1e52 drivers/mtd/ubi/libubi.a(io.o)
 .debug_info    0x000866e6     0x2910 drivers/mtd/ubi/libubi.a(wl.o)
 .debug_info    0x00088ff6     0x2ae0 drivers/mtd/ubi/libubi.a(scan.o)
 .debug_info    0x0008bad6      0x187 drivers/mtd/ubi/libubi.a(crc32.o)
 .debug_info    0x0008bc5d     0x1235 drivers/mtd/ubi/libubi.a(misc.o)
 .debug_info    0x0008ce92      0x4a6 drivers/mtd/spi/libspi_flash.a(spi_flash_aml.o)
 .debug_info    0x0008d338      0x484 drivers/mtd/spi/libspi_flash.a(macronix.o)
 .debug_info    0x0008d7bc      0x47c drivers/mtd/spi/libspi_flash.a(sst.o)
 .debug_info    0x0008dc38      0x484 drivers/mtd/spi/libspi_flash.a(winbond.o)
 .debug_info    0x0008e0bc      0x3e5 drivers/spi/libspi.a(amlogic_spi_a.o)
 .debug_info    0x0008e4a1     0x41bc drivers/usb/host/libusb_host.a(dwc_otg_hcd.o)
 .debug_info    0x0009265d      0x707 common/libcommon.a(devfont.o)
 .debug_info    0x00092d64      0x6bc lib/libgeneric.a(rbtree.o)
 .debug_info    0x00093420       0xb1 arch/arm/cpu/aml_meson/libaml_meson.a(cpu.o)
 .debug_info    0x000934d1      0x1fc arch/arm/cpu/aml_meson/m1/libm1.a(usb.o)

.debug_abbrev   0x00000000    0x142ab
 .debug_abbrev  0x00000000       0x14 arch/arm/cpu/aml_meson/start.o
 .debug_abbrev  0x00000014       0x14 arch/arm/lib/libarm.a(cache_init.o)
 .debug_abbrev  0x00000028      0x204 arch/arm/lib/libarm.a(board.o)
 .debug_abbrev  0x0000022c       0xa3 arch/arm/lib/libarm.a(cache.o)
 .debug_abbrev  0x000002cf      0x13d arch/arm/lib/libarm.a(cache-cp15.o)
 .debug_abbrev  0x0000040c      0x11b arch/arm/lib/libarm.a(interrupts.o)
 .debug_abbrev  0x00000527       0x14 arch/arm/lib/libarm.a(cache_v7.o)
 .debug_abbrev  0x0000053b      0x344 drivers/i2c/libi2c.a(aml_i2c.o)
 .debug_abbrev  0x0000087f      0x3b7 drivers/mmc/libmmc.a(mmc.o)
 .debug_abbrev  0x00000c36      0x210 drivers/mtd/nand/libnand.a(m1_nand.o)
 .debug_abbrev  0x00000e46      0x3fd drivers/mtd/nand/libnand.a(aml_nand.o)
 .debug_abbrev  0x00001243      0x3f7 drivers/mtd/nand/libnand.a(nand_base.o)
 .debug_abbrev  0x0000163a      0x376 drivers/mtd/nand/libnand.a(nand_bbt.o)
 .debug_abbrev  0x000019b0      0x1ca drivers/mtd/nand/libnand.a(nand_ecc.o)
 .debug_abbrev  0x00001b7a       0x8c drivers/mtd/nand/libnand.a(nand_ids.o)
 .debug_abbrev  0x00001c06      0x288 drivers/rtc/librtc.a(aml_rtc.o)
 .debug_abbrev  0x00001e8e      0x11d drivers/rtc/librtc.a(rtc-lib.o)
 .debug_abbrev  0x00001fab      0x1ad common/libcommon.a(cmd_autoscript.o)
 .debug_abbrev  0x00002158      0x15c common/libcommon.a(cmd_bdinfo.o)
 .debug_abbrev  0x000022b4      0x1a9 common/libcommon.a(cmd_bmp.o)
 .debug_abbrev  0x0000245d      0x105 common/libcommon.a(cmd_boot.o)
 .debug_abbrev  0x00002562      0x319 common/libcommon.a(cmd_bootm.o)
 .debug_abbrev  0x0000287b      0x185 common/libcommon.a(cmd_console.o)
 .debug_abbrev  0x00002a00       0xe6 common/libcommon.a(cmd_echo.o)
 .debug_abbrev  0x00002ae6       0xd0 common/libcommon.a(cmd_exit.o)
 .debug_abbrev  0x00002bb6      0x153 common/libcommon.a(cmd_ext2.o)
 .debug_abbrev  0x00002d09      0x128 common/libcommon.a(cmd_fat.o)
 .debug_abbrev  0x00002e31       0xd2 common/libcommon.a(cmd_help.o)
 .debug_abbrev  0x00002f03      0x189 common/libcommon.a(cmd_itest.o)
 .debug_abbrev  0x0000308c      0x3e3 common/libcommon.a(cmd_load.o)
 .debug_abbrev  0x0000346f      0x1c8 common/libcommon.a(cmd_mem.o)
 .debug_abbrev  0x00003637       0xd0 common/libcommon.a(cmd_misc.o)
 .debug_abbrev  0x00003707      0x1fb common/libcommon.a(cmd_mmc.o)
 .debug_abbrev  0x00003902      0x3f0 common/libcommon.a(cmd_mtdparts.o)
 .debug_abbrev  0x00003cf2      0x3de common/libcommon.a(cmd_nand.o)
 .debug_abbrev  0x000040d0      0x26e common/libcommon.a(cmd_nvedit.o)
 .debug_abbrev  0x0000433e      0x1c2 common/libcommon.a(cmd_sf.o)
 .debug_abbrev  0x00004500      0x1ad common/libcommon.a(cmd_source.o)
 .debug_abbrev  0x000046ad      0x116 common/libcommon.a(cmd_test.o)
 .debug_abbrev  0x000047c3      0x365 common/libcommon.a(cmd_ubi.o)
 .debug_abbrev  0x00004b28      0x108 common/libcommon.a(cmd_ubifs.o)
 .debug_abbrev  0x00004c30      0x2b6 common/libcommon.a(cmd_usb.o)
 .debug_abbrev  0x00004ee6       0xe0 common/libcommon.a(cmd_version.o)
 .debug_abbrev  0x00004fc6      0x1ad common/libcommon.a(cmd_ximg.o)
 .debug_abbrev  0x00005173      0x2ca common/libcommon.a(command.o)
 .debug_abbrev  0x0000543d      0x390 common/libcommon.a(console.o)
 .debug_abbrev  0x000057cd      0x274 common/libcommon.a(dlmalloc.o)
 .debug_abbrev  0x00005a41      0x269 common/libcommon.a(env_common.o)
 .debug_abbrev  0x00005caa      0x316 common/libcommon.a(env_nand.o)
 .debug_abbrev  0x00005fc0      0x12e common/libcommon.a(exports.o)
 .debug_abbrev  0x000060ee      0x3d2 common/libcommon.a(hush.o)
 .debug_abbrev  0x000064c0      0x374 common/libcommon.a(image.o)
 .debug_abbrev  0x00006834      0x365 common/libcommon.a(kgdb.o)
 .debug_abbrev  0x00006b99       0xe0 common/libcommon.a(kgdb_stubs.o)
 .debug_abbrev  0x00006c79      0x3ac common/libcommon.a(lcd_aml.o)
 .debug_abbrev  0x00007025      0x25f common/libcommon.a(main.o)
 .debug_abbrev  0x00007284       0xdb common/libcommon.a(s_record.o)
 .debug_abbrev  0x0000735f      0x216 common/libcommon.a(stdio.o)
 .debug_abbrev  0x00007575      0x3ca common/libcommon.a(usb.o)
 .debug_abbrev  0x0000793f      0x30c common/libcommon.a(usb_storage.o)
 .debug_abbrev  0x00007c4b      0x2b7 common/libcommon.a(xyzModem.o)
 .debug_abbrev  0x00007f02      0x4dc board/amlogic/8726m_mid_refb04/lib8726m_mid_refb04.a(8726m_mid_refb04.o)
 .debug_abbrev  0x000083de      0x260 board/amlogic/8726m_mid_refb04/lib8726m_mid_refb04.a(lcd.o)
 .debug_abbrev  0x0000863e       0xff board/amlogic/8726m_mid_refb04/lib8726m_mid_refb04.a(saradc.o)
 .debug_abbrev  0x0000873d       0x9d board/amlogic/8726m_mid_refb04/lib8726m_mid_refb04.a(powerkey.o)
 .debug_abbrev  0x000087da      0x238 board/amlogic/8726m_mid_refb04/lib8726m_mid_refb04.a(upgrade.o)
 .debug_abbrev  0x00008a12      0x1a2 board/amlogic/8726m_mid_refb04/lib8726m_mid_refb04.a(battery_charging.o)
 .debug_abbrev  0x00008bb4       0xfd board/amlogic/8726m_mid_refb04/lib8726m_mid_refb04.a(debug.o)
 .debug_abbrev  0x00008cb1       0xc6 lib/libgeneric.a(crc16.o)
 .debug_abbrev  0x00008d77       0xf4 lib/libgeneric.a(crc32.o)
 .debug_abbrev  0x00008e6b       0x4b lib/libgeneric.a(ctype.o)
 .debug_abbrev  0x00008eb6      0x11e lib/libgeneric.a(display_options.o)
 .debug_abbrev  0x00008fd4       0xad lib/libgeneric.a(div64.o)
 .debug_abbrev  0x00009081      0x137 lib/libgeneric.a(gunzip.o)
 .debug_abbrev  0x000091b8       0xd9 lib/libgeneric.a(net_utils.o)
 .debug_abbrev  0x00009291      0x1f4 lib/libgeneric.a(string.o)
 .debug_abbrev  0x00009485       0xe0 lib/libgeneric.a(time.o)
 .debug_abbrev  0x00009565      0x2fa lib/libgeneric.a(vsprintf.o)
 .debug_abbrev  0x0000985f      0x29b lib/libgeneric.a(zlib.o)
 .debug_abbrev  0x00009afa      0x141 lib/lzma/liblzma.a(LzmaTools.o)
 .debug_abbrev  0x00009c3b      0x30e lib/lzma/liblzma.a(LzmaDec.o)
 .debug_abbrev  0x00009f49      0x200 lib/lzo/liblzo.a(lzo1x_decompress.o)
 .debug_abbrev  0x0000a149       0xde arch/arm/cpu/aml_meson/m1/libm1.a(timer.o)
 .debug_abbrev  0x0000a227       0x64 arch/arm/cpu/aml_meson/m1/libm1.a(soc.o)
 .debug_abbrev  0x0000a28b       0xf0 arch/arm/cpu/aml_meson/m1/libm1.a(board.o)
 .debug_abbrev  0x0000a37b       0xd7 arch/arm/cpu/aml_meson/m1/libm1.a(sdio.o)
 .debug_abbrev  0x0000a452      0x2a6 arch/arm/cpu/aml_meson/m1/libm1.a(serial.o)
 .debug_abbrev  0x0000a6f8      0x105 arch/arm/cpu/aml_meson/m1/libm1.a(clock.o)
 .debug_abbrev  0x0000a7fd       0xdf arch/arm/cpu/aml_meson/m1/libm1.a(pinmux.o)
 .debug_abbrev  0x0000a8dc      0x16c arch/arm/cpu/aml_meson/m1/libm1.a(gpio.o)
 .debug_abbrev  0x0000aa48      0x228 arch/arm/cpu/aml_meson/m1/libm1.a(tcon.o)
 .debug_abbrev  0x0000ac70      0x20e arch/arm/cpu/aml_meson/m1/libm1.a(osd_hw.o)
 .debug_abbrev  0x0000ae7e      0x114 arch/arm/cpu/aml_meson/m1/libm1.a(canvas.o)
 .debug_abbrev  0x0000af92      0x24c arch/arm/lib/libarm.a(bootm.o)
 .debug_abbrev  0x0000b1de       0xae arch/arm/lib/libarm.a(reset.o)
 .debug_abbrev  0x0000b28c      0x19d arch/arm/lib/libarm.a(kgdb.o)
 .debug_abbrev  0x0000b429      0x32e fs/fat/libfat.a(fat.o)
 .debug_abbrev  0x0000b757      0x2a0 fs/ext2/libext2fs.a(ext2fs.o)
 .debug_abbrev  0x0000b9f7      0x13f fs/ext2/libext2fs.a(dev.o)
 .debug_abbrev  0x0000bb36      0x532 fs/ubifs/libubifs.a(ubifs.o)
 .debug_abbrev  0x0000c068      0x52d fs/ubifs/libubifs.a(super.o)
 .debug_abbrev  0x0000c595      0x359 fs/ubifs/libubifs.a(sb.o)
 .debug_abbrev  0x0000c8ee      0x300 fs/ubifs/libubifs.a(master.o)
 .debug_abbrev  0x0000cbee      0x508 fs/ubifs/libubifs.a(lpt.o)
 .debug_abbrev  0x0000d0f6      0x2da fs/ubifs/libubifs.a(lpt_commit.o)
 .debug_abbrev  0x0000d3d0      0x449 fs/ubifs/libubifs.a(scan.o)
 .debug_abbrev  0x0000d819      0x482 fs/ubifs/libubifs.a(lprops.o)
 .debug_abbrev  0x0000dc9b      0x530 fs/ubifs/libubifs.a(tnc.o)
 .debug_abbrev  0x0000e1cb      0x473 fs/ubifs/libubifs.a(tnc_misc.o)
 .debug_abbrev  0x0000e63e      0x109 fs/ubifs/libubifs.a(crc16.o)
 .debug_abbrev  0x0000e747      0x290 fs/ubifs/libubifs.a(budget.o)
 .debug_abbrev  0x0000e9d7      0x380 fs/ubifs/libubifs.a(orphan.o)
 .debug_abbrev  0x0000ed57      0x526 fs/ubifs/libubifs.a(recovery.o)
 .debug_abbrev  0x0000f27d      0x47c fs/ubifs/libubifs.a(replay.o)
 .debug_abbrev  0x0000f6f9      0x379 fs/ubifs/libubifs.a(io.o)
 .debug_abbrev  0x0000fa72      0x2d3 fs/ubifs/libubifs.a(log.o)
 .debug_abbrev  0x0000fd45      0x1fa disk/libdisk.a(part.o)
 .debug_abbrev  0x0000ff3f      0x1f8 disk/libdisk.a(part_dos.o)
 .debug_abbrev  0x00010137      0x327 drivers/mmc/libmmc.a(aml_sd_mmc.o)
 .debug_abbrev  0x0001045e      0x1c3 drivers/mtd/libmtd.a(mtdcore.o)
 .debug_abbrev  0x00010621      0x367 drivers/mtd/libmtd.a(mtdpart.o)
 .debug_abbrev  0x00010988      0x364 drivers/mtd/nand/libnand.a(nand_util.o)
 .debug_abbrev  0x00010cec      0x3b5 drivers/mtd/ubi/libubi.a(build.o)
 .debug_abbrev  0x000110a1      0x3f4 drivers/mtd/ubi/libubi.a(vtbl.o)
 .debug_abbrev  0x00011495      0x2e7 drivers/mtd/ubi/libubi.a(vmt.o)
 .debug_abbrev  0x0001177c      0x309 drivers/mtd/ubi/libubi.a(upd.o)
 .debug_abbrev  0x00011a85      0x2cc drivers/mtd/ubi/libubi.a(kapi.o)
 .debug_abbrev  0x00011d51      0x45f drivers/mtd/ubi/libubi.a(eba.o)
 .debug_abbrev  0x000121b0      0x399 drivers/mtd/ubi/libubi.a(io.o)
 .debug_abbrev  0x00012549      0x41e drivers/mtd/ubi/libubi.a(wl.o)
 .debug_abbrev  0x00012967      0x417 drivers/mtd/ubi/libubi.a(scan.o)
 .debug_abbrev  0x00012d7e       0xe3 drivers/mtd/ubi/libubi.a(crc32.o)
 .debug_abbrev  0x00012e61      0x1ef drivers/mtd/ubi/libubi.a(misc.o)
 .debug_abbrev  0x00013050      0x184 drivers/mtd/spi/libspi_flash.a(spi_flash_aml.o)
 .debug_abbrev  0x000131d4      0x18c drivers/mtd/spi/libspi_flash.a(macronix.o)
 .debug_abbrev  0x00013360      0x17d drivers/mtd/spi/libspi_flash.a(sst.o)
 .debug_abbrev  0x000134dd      0x18c drivers/mtd/spi/libspi_flash.a(winbond.o)
 .debug_abbrev  0x00013669      0x1e5 drivers/spi/libspi.a(amlogic_spi_a.o)
 .debug_abbrev  0x0001384e      0x4cd drivers/usb/host/libusb_host.a(dwc_otg_hcd.o)
 .debug_abbrev  0x00013d1b      0x201 common/libcommon.a(devfont.o)
 .debug_abbrev  0x00013f1c      0x1fe lib/libgeneric.a(rbtree.o)
 .debug_abbrev  0x0001411a       0x75 arch/arm/cpu/aml_meson/libaml_meson.a(cpu.o)
 .debug_abbrev  0x0001418f      0x11c arch/arm/cpu/aml_meson/m1/libm1.a(usb.o)

.debug_aranges  0x00000000     0x11a0
 .debug_aranges
                0x00000000       0x20 arch/arm/cpu/aml_meson/start.o
 .debug_aranges
                0x00000020       0x20 arch/arm/lib/libarm.a(cache_init.o)
 .debug_aranges
                0x00000040       0x20 arch/arm/lib/libarm.a(board.o)
 .debug_aranges
                0x00000060       0x20 arch/arm/lib/libarm.a(cache.o)
 .debug_aranges
                0x00000080       0x20 arch/arm/lib/libarm.a(cache-cp15.o)
 .debug_aranges
                0x000000a0       0x20 arch/arm/lib/libarm.a(interrupts.o)
 .debug_aranges
                0x000000c0       0x20 arch/arm/lib/libarm.a(cache_v7.o)
 .debug_aranges
                0x000000e0       0x20 drivers/i2c/libi2c.a(aml_i2c.o)
 .debug_aranges
                0x00000100       0x20 drivers/mmc/libmmc.a(mmc.o)
 .debug_aranges
                0x00000120       0x20 drivers/mtd/nand/libnand.a(m1_nand.o)
 .debug_aranges
                0x00000140       0x20 drivers/mtd/nand/libnand.a(aml_nand.o)
 .debug_aranges
                0x00000160       0x20 drivers/mtd/nand/libnand.a(nand_base.o)
 .debug_aranges
                0x00000180       0x20 drivers/mtd/nand/libnand.a(nand_bbt.o)
 .debug_aranges
                0x000001a0       0x20 drivers/mtd/nand/libnand.a(nand_ecc.o)
 .debug_aranges
                0x000001c0       0x20 drivers/rtc/librtc.a(aml_rtc.o)
 .debug_aranges
                0x000001e0       0x20 drivers/rtc/librtc.a(rtc-lib.o)
 .debug_aranges
                0x00000200       0x20 common/libcommon.a(cmd_autoscript.o)
 .debug_aranges
                0x00000220       0x20 common/libcommon.a(cmd_bdinfo.o)
 .debug_aranges
                0x00000240       0x20 common/libcommon.a(cmd_bmp.o)
 .debug_aranges
                0x00000260       0x20 common/libcommon.a(cmd_boot.o)
 .debug_aranges
                0x00000280       0x20 common/libcommon.a(cmd_bootm.o)
 .debug_aranges
                0x000002a0       0x20 common/libcommon.a(cmd_console.o)
 .debug_aranges
                0x000002c0       0x20 common/libcommon.a(cmd_echo.o)
 .debug_aranges
                0x000002e0       0x20 common/libcommon.a(cmd_exit.o)
 .debug_aranges
                0x00000300       0x20 common/libcommon.a(cmd_ext2.o)
 .debug_aranges
                0x00000320       0x20 common/libcommon.a(cmd_fat.o)
 .debug_aranges
                0x00000340       0x20 common/libcommon.a(cmd_help.o)
 .debug_aranges
                0x00000360       0x20 common/libcommon.a(cmd_itest.o)
 .debug_aranges
                0x00000380       0x20 common/libcommon.a(cmd_load.o)
 .debug_aranges
                0x000003a0       0x20 common/libcommon.a(cmd_mem.o)
 .debug_aranges
                0x000003c0       0x20 common/libcommon.a(cmd_misc.o)
 .debug_aranges
                0x000003e0       0x20 common/libcommon.a(cmd_mmc.o)
 .debug_aranges
                0x00000400       0x20 common/libcommon.a(cmd_mtdparts.o)
 .debug_aranges
                0x00000420       0x20 common/libcommon.a(cmd_nand.o)
 .debug_aranges
                0x00000440       0x20 common/libcommon.a(cmd_nvedit.o)
 .debug_aranges
                0x00000460       0x20 common/libcommon.a(cmd_sf.o)
 .debug_aranges
                0x00000480       0x20 common/libcommon.a(cmd_source.o)
 .debug_aranges
                0x000004a0       0x20 common/libcommon.a(cmd_test.o)
 .debug_aranges
                0x000004c0       0x20 common/libcommon.a(cmd_ubi.o)
 .debug_aranges
                0x000004e0       0x20 common/libcommon.a(cmd_ubifs.o)
 .debug_aranges
                0x00000500       0x20 common/libcommon.a(cmd_usb.o)
 .debug_aranges
                0x00000520       0x20 common/libcommon.a(cmd_version.o)
 .debug_aranges
                0x00000540       0x20 common/libcommon.a(cmd_ximg.o)
 .debug_aranges
                0x00000560       0x20 common/libcommon.a(command.o)
 .debug_aranges
                0x00000580       0x20 common/libcommon.a(console.o)
 .debug_aranges
                0x000005a0       0x20 common/libcommon.a(dlmalloc.o)
 .debug_aranges
                0x000005c0       0x20 common/libcommon.a(env_common.o)
 .debug_aranges
                0x000005e0       0x20 common/libcommon.a(env_nand.o)
 .debug_aranges
                0x00000600       0x20 common/libcommon.a(exports.o)
 .debug_aranges
                0x00000620       0x20 common/libcommon.a(hush.o)
 .debug_aranges
                0x00000640       0x20 common/libcommon.a(image.o)
 .debug_aranges
                0x00000660       0x20 common/libcommon.a(kgdb.o)
 .debug_aranges
                0x00000680       0x20 common/libcommon.a(kgdb_stubs.o)
 .debug_aranges
                0x000006a0       0x20 common/libcommon.a(lcd_aml.o)
 .debug_aranges
                0x000006c0       0x20 common/libcommon.a(main.o)
 .debug_aranges
                0x000006e0       0x20 common/libcommon.a(s_record.o)
 .debug_aranges
                0x00000700       0x20 common/libcommon.a(stdio.o)
 .debug_aranges
                0x00000720       0x20 common/libcommon.a(usb.o)
 .debug_aranges
                0x00000740       0x20 common/libcommon.a(usb_storage.o)
 .debug_aranges
                0x00000760       0x20 common/libcommon.a(xyzModem.o)
 .debug_aranges
                0x00000780       0x20 board/amlogic/8726m_mid_refb04/lib8726m_mid_refb04.a(8726m_mid_refb04.o)
 .debug_aranges
                0x000007a0       0x20 board/amlogic/8726m_mid_refb04/lib8726m_mid_refb04.a(lcd.o)
 .debug_aranges
                0x000007c0       0x20 board/amlogic/8726m_mid_refb04/lib8726m_mid_refb04.a(saradc.o)
 .debug_aranges
                0x000007e0       0x20 board/amlogic/8726m_mid_refb04/lib8726m_mid_refb04.a(powerkey.o)
 .debug_aranges
                0x00000800       0x20 board/amlogic/8726m_mid_refb04/lib8726m_mid_refb04.a(upgrade.o)
 .debug_aranges
                0x00000820       0x20 board/amlogic/8726m_mid_refb04/lib8726m_mid_refb04.a(battery_charging.o)
 .debug_aranges
                0x00000840       0x20 board/amlogic/8726m_mid_refb04/lib8726m_mid_refb04.a(debug.o)
 .debug_aranges
                0x00000860       0x20 lib/libgeneric.a(crc16.o)
 .debug_aranges
                0x00000880       0x20 lib/libgeneric.a(crc32.o)
 .debug_aranges
                0x000008a0       0x20 lib/libgeneric.a(display_options.o)
 .debug_aranges
                0x000008c0       0x20 lib/libgeneric.a(div64.o)
 .debug_aranges
                0x000008e0       0x20 lib/libgeneric.a(gunzip.o)
 .debug_aranges
                0x00000900       0x20 lib/libgeneric.a(net_utils.o)
 .debug_aranges
                0x00000920       0x20 lib/libgeneric.a(string.o)
 .debug_aranges
                0x00000940       0x20 lib/libgeneric.a(time.o)
 .debug_aranges
                0x00000960       0x20 lib/libgeneric.a(vsprintf.o)
 .debug_aranges
                0x00000980       0x20 lib/libgeneric.a(zlib.o)
 .debug_aranges
                0x000009a0       0x20 lib/lzma/liblzma.a(LzmaTools.o)
 .debug_aranges
                0x000009c0       0x20 lib/lzma/liblzma.a(LzmaDec.o)
 .debug_aranges
                0x000009e0       0x20 lib/lzo/liblzo.a(lzo1x_decompress.o)
 .debug_aranges
                0x00000a00       0x20 arch/arm/cpu/aml_meson/m1/libm1.a(timer.o)
 .debug_aranges
                0x00000a20       0x20 arch/arm/cpu/aml_meson/m1/libm1.a(soc.o)
 .debug_aranges
                0x00000a40       0x20 arch/arm/cpu/aml_meson/m1/libm1.a(board.o)
 .debug_aranges
                0x00000a60       0x20 arch/arm/cpu/aml_meson/m1/libm1.a(sdio.o)
 .debug_aranges
                0x00000a80       0x20 arch/arm/cpu/aml_meson/m1/libm1.a(serial.o)
 .debug_aranges
                0x00000aa0       0x20 arch/arm/cpu/aml_meson/m1/libm1.a(clock.o)
 .debug_aranges
                0x00000ac0       0x20 arch/arm/cpu/aml_meson/m1/libm1.a(pinmux.o)
 .debug_aranges
                0x00000ae0       0x20 arch/arm/cpu/aml_meson/m1/libm1.a(gpio.o)
 .debug_aranges
                0x00000b00       0x20 arch/arm/cpu/aml_meson/m1/libm1.a(tcon.o)
 .debug_aranges
                0x00000b20       0x20 arch/arm/cpu/aml_meson/m1/libm1.a(osd_hw.o)
 .debug_aranges
                0x00000b40       0x20 arch/arm/cpu/aml_meson/m1/libm1.a(canvas.o)
 .debug_aranges
                0x00000b60       0x20 arch/arm/lib/libarm.a(bootm.o)
 .debug_aranges
                0x00000b80       0x20 arch/arm/lib/libarm.a(reset.o)
 .debug_aranges
                0x00000ba0       0x20 arch/arm/lib/libarm.a(kgdb.o)
 .debug_aranges
                0x00000bc0       0x20 fs/fat/libfat.a(fat.o)
 .debug_aranges
                0x00000be0       0x20 fs/ext2/libext2fs.a(ext2fs.o)
 .debug_aranges
                0x00000c00       0x20 fs/ext2/libext2fs.a(dev.o)
 .debug_aranges
                0x00000c20       0x20 fs/ubifs/libubifs.a(ubifs.o)
 .debug_aranges
                0x00000c40       0x20 fs/ubifs/libubifs.a(super.o)
 .debug_aranges
                0x00000c60       0x20 fs/ubifs/libubifs.a(sb.o)
 .debug_aranges
                0x00000c80       0x20 fs/ubifs/libubifs.a(master.o)
 .debug_aranges
                0x00000ca0       0x20 fs/ubifs/libubifs.a(lpt.o)
 .debug_aranges
                0x00000cc0       0x20 fs/ubifs/libubifs.a(lpt_commit.o)
 .debug_aranges
                0x00000ce0       0x20 fs/ubifs/libubifs.a(scan.o)
 .debug_aranges
                0x00000d00       0x20 fs/ubifs/libubifs.a(lprops.o)
 .debug_aranges
                0x00000d20       0x20 fs/ubifs/libubifs.a(tnc.o)
 .debug_aranges
                0x00000d40       0x20 fs/ubifs/libubifs.a(tnc_misc.o)
 .debug_aranges
                0x00000d60       0x20 fs/ubifs/libubifs.a(crc16.o)
 .debug_aranges
                0x00000d80       0x20 fs/ubifs/libubifs.a(budget.o)
 .debug_aranges
                0x00000da0       0x20 fs/ubifs/libubifs.a(orphan.o)
 .debug_aranges
                0x00000dc0       0x20 fs/ubifs/libubifs.a(recovery.o)
 .debug_aranges
                0x00000de0       0x20 fs/ubifs/libubifs.a(replay.o)
 .debug_aranges
                0x00000e00       0x20 fs/ubifs/libubifs.a(io.o)
 .debug_aranges
                0x00000e20       0x20 fs/ubifs/libubifs.a(log.o)
 .debug_aranges
                0x00000e40       0x20 disk/libdisk.a(part.o)
 .debug_aranges
                0x00000e60       0x20 disk/libdisk.a(part_dos.o)
 .debug_aranges
                0x00000e80       0x20 drivers/mmc/libmmc.a(aml_sd_mmc.o)
 .debug_aranges
                0x00000ea0       0x20 drivers/mtd/libmtd.a(mtdcore.o)
 .debug_aranges
                0x00000ec0       0x20 drivers/mtd/libmtd.a(mtdpart.o)
 .debug_aranges
                0x00000ee0       0x20 drivers/mtd/nand/libnand.a(nand_util.o)
 .debug_aranges
                0x00000f00       0x20 drivers/mtd/ubi/libubi.a(build.o)
 .debug_aranges
                0x00000f20       0x20 drivers/mtd/ubi/libubi.a(vtbl.o)
 .debug_aranges
                0x00000f40       0x20 drivers/mtd/ubi/libubi.a(vmt.o)
 .debug_aranges
                0x00000f60       0x20 drivers/mtd/ubi/libubi.a(upd.o)
 .debug_aranges
                0x00000f80       0x20 drivers/mtd/ubi/libubi.a(kapi.o)
 .debug_aranges
                0x00000fa0       0x20 drivers/mtd/ubi/libubi.a(eba.o)
 .debug_aranges
                0x00000fc0       0x20 drivers/mtd/ubi/libubi.a(io.o)
 .debug_aranges
                0x00000fe0       0x20 drivers/mtd/ubi/libubi.a(wl.o)
 .debug_aranges
                0x00001000       0x20 drivers/mtd/ubi/libubi.a(scan.o)
 .debug_aranges
                0x00001020       0x20 drivers/mtd/ubi/libubi.a(crc32.o)
 .debug_aranges
                0x00001040       0x20 drivers/mtd/ubi/libubi.a(misc.o)
 .debug_aranges
                0x00001060       0x20 drivers/mtd/spi/libspi_flash.a(spi_flash_aml.o)
 .debug_aranges
                0x00001080       0x20 drivers/mtd/spi/libspi_flash.a(macronix.o)
 .debug_aranges
                0x000010a0       0x20 drivers/mtd/spi/libspi_flash.a(sst.o)
 .debug_aranges
                0x000010c0       0x20 drivers/mtd/spi/libspi_flash.a(winbond.o)
 .debug_aranges
                0x000010e0       0x20 drivers/spi/libspi.a(amlogic_spi_a.o)
 .debug_aranges
                0x00001100       0x20 drivers/usb/host/libusb_host.a(dwc_otg_hcd.o)
 .debug_aranges
                0x00001120       0x20 common/libcommon.a(devfont.o)
 .debug_aranges
                0x00001140       0x20 lib/libgeneric.a(rbtree.o)
 .debug_aranges
                0x00001160       0x20 arch/arm/cpu/aml_meson/libaml_meson.a(cpu.o)
 .debug_aranges
                0x00001180       0x20 arch/arm/cpu/aml_meson/m1/libm1.a(usb.o)

.debug_loc      0x00000000    0x38950
 .debug_loc     0x00000000       0xc6 arch/arm/lib/libarm.a(board.o)
 .debug_loc     0x000000c6      0x345 arch/arm/lib/libarm.a(cache.o)
 .debug_loc     0x0000040b      0x198 arch/arm/lib/libarm.a(cache-cp15.o)
 .debug_loc     0x000005a3      0x23d arch/arm/lib/libarm.a(interrupts.o)
 .debug_loc     0x000007e0      0x650 drivers/i2c/libi2c.a(aml_i2c.o)
 .debug_loc     0x00000e30      0xe17 drivers/mmc/libmmc.a(mmc.o)
 .debug_loc     0x00001c47       0xbc drivers/mtd/nand/libnand.a(m1_nand.o)
 .debug_loc     0x00001d03     0x1ba1 drivers/mtd/nand/libnand.a(aml_nand.o)
 .debug_loc     0x000038a4     0x2a70 drivers/mtd/nand/libnand.a(nand_base.o)
 .debug_loc     0x00006314     0x1317 drivers/mtd/nand/libnand.a(nand_bbt.o)
 .debug_loc     0x0000762b      0x200 drivers/mtd/nand/libnand.a(nand_ecc.o)
 .debug_loc     0x0000782b      0x360 drivers/rtc/librtc.a(aml_rtc.o)
 .debug_loc     0x00007b8b      0x2c6 drivers/rtc/librtc.a(rtc-lib.o)
 .debug_loc     0x00007e51      0x261 common/libcommon.a(cmd_autoscript.o)
 .debug_loc     0x000080b2       0xc6 common/libcommon.a(cmd_bdinfo.o)
 .debug_loc     0x00008178      0x40f common/libcommon.a(cmd_bmp.o)
 .debug_loc     0x00008587      0x1d8 common/libcommon.a(cmd_boot.o)
 .debug_loc     0x0000875f      0x87f common/libcommon.a(cmd_bootm.o)
 .debug_loc     0x00008fde       0x77 common/libcommon.a(cmd_console.o)
 .debug_loc     0x00009055      0x188 common/libcommon.a(cmd_echo.o)
 .debug_loc     0x000091dd       0xb5 common/libcommon.a(cmd_exit.o)
 .debug_loc     0x00009292      0x3c9 common/libcommon.a(cmd_ext2.o)
 .debug_loc     0x0000965b      0x591 common/libcommon.a(cmd_fat.o)
 .debug_loc     0x00009bec       0x8d common/libcommon.a(cmd_help.o)
 .debug_loc     0x00009c79      0x37e common/libcommon.a(cmd_itest.o)
 .debug_loc     0x00009ff7      0x941 common/libcommon.a(cmd_load.o)
 .debug_loc     0x0000a938      0xda6 common/libcommon.a(cmd_mem.o)
 .debug_loc     0x0000b6de       0x97 common/libcommon.a(cmd_misc.o)
 .debug_loc     0x0000b775      0x3f9 common/libcommon.a(cmd_mmc.o)
 .debug_loc     0x0000bb6e     0x1773 common/libcommon.a(cmd_mtdparts.o)
 .debug_loc     0x0000d2e1     0x1005 common/libcommon.a(cmd_nand.o)
 .debug_loc     0x0000e2e6      0xa9c common/libcommon.a(cmd_nvedit.o)
 .debug_loc     0x0000ed82      0x2ef common/libcommon.a(cmd_sf.o)
 .debug_loc     0x0000f071      0x261 common/libcommon.a(cmd_source.o)
 .debug_loc     0x0000f2d2      0x1ab common/libcommon.a(cmd_test.o)
 .debug_loc     0x0000f47d      0x8b2 common/libcommon.a(cmd_ubi.o)
 .debug_loc     0x0000fd2f      0x332 common/libcommon.a(cmd_ubifs.o)
 .debug_loc     0x00010061      0xa1a common/libcommon.a(cmd_usb.o)
 .debug_loc     0x00010a7b       0x6b common/libcommon.a(cmd_version.o)
 .debug_loc     0x00010ae6      0x19b common/libcommon.a(cmd_ximg.o)
 .debug_loc     0x00010c81      0xc9a common/libcommon.a(command.o)
 .debug_loc     0x0001191b      0x5da common/libcommon.a(console.o)
 .debug_loc     0x00011ef5     0x136c common/libcommon.a(dlmalloc.o)
 .debug_loc     0x00013261      0x2da common/libcommon.a(env_common.o)
 .debug_loc     0x0001353b      0x1e3 common/libcommon.a(env_nand.o)
 .debug_loc     0x0001371e       0x1f common/libcommon.a(exports.o)
 .debug_loc     0x0001373d     0x11a8 common/libcommon.a(hush.o)
 .debug_loc     0x000148e5      0x866 common/libcommon.a(image.o)
 .debug_loc     0x0001514b      0x642 common/libcommon.a(kgdb.o)
 .debug_loc     0x0001578d       0x64 common/libcommon.a(kgdb_stubs.o)
 .debug_loc     0x000157f1      0x96b common/libcommon.a(lcd_aml.o)
 .debug_loc     0x0001615c      0x85e common/libcommon.a(main.o)
 .debug_loc     0x000169ba      0x291 common/libcommon.a(s_record.o)
 .debug_loc     0x00016c4b      0x114 common/libcommon.a(stdio.o)
 .debug_loc     0x00016d5f     0x1698 common/libcommon.a(usb.o)
 .debug_loc     0x000183f7      0xb5b common/libcommon.a(usb_storage.o)
 .debug_loc     0x00018f52      0x50d common/libcommon.a(xyzModem.o)
 .debug_loc     0x0001945f      0xdda board/amlogic/8726m_mid_refb04/lib8726m_mid_refb04.a(8726m_mid_refb04.o)
 .debug_loc     0x0001a239      0x1b3 board/amlogic/8726m_mid_refb04/lib8726m_mid_refb04.a(lcd.o)
 .debug_loc     0x0001a3ec       0xdf board/amlogic/8726m_mid_refb04/lib8726m_mid_refb04.a(saradc.o)
 .debug_loc     0x0001a4cb       0x3e board/amlogic/8726m_mid_refb04/lib8726m_mid_refb04.a(powerkey.o)
 .debug_loc     0x0001a509      0x5be board/amlogic/8726m_mid_refb04/lib8726m_mid_refb04.a(upgrade.o)
 .debug_loc     0x0001aac7      0x191 board/amlogic/8726m_mid_refb04/lib8726m_mid_refb04.a(battery_charging.o)
 .debug_loc     0x0001ac58       0x76 board/amlogic/8726m_mid_refb04/lib8726m_mid_refb04.a(debug.o)
 .debug_loc     0x0001acce       0x5b lib/libgeneric.a(crc16.o)
 .debug_loc     0x0001ad29      0x1e3 lib/libgeneric.a(crc32.o)
 .debug_loc     0x0001af0c      0x294 lib/libgeneric.a(display_options.o)
 .debug_loc     0x0001b1a0       0xe6 lib/libgeneric.a(div64.o)
 .debug_loc     0x0001b286      0x30e lib/libgeneric.a(gunzip.o)
 .debug_loc     0x0001b594       0x7d lib/libgeneric.a(net_utils.o)
 .debug_loc     0x0001b611      0x7b3 lib/libgeneric.a(string.o)
 .debug_loc     0x0001bdc4      0x13b lib/libgeneric.a(time.o)
 .debug_loc     0x0001beff      0xcfd lib/libgeneric.a(vsprintf.o)
 .debug_loc     0x0001cbfc     0x1755 lib/libgeneric.a(zlib.o)
 .debug_loc     0x0001e351      0x1ba lib/lzma/liblzma.a(LzmaTools.o)
 .debug_loc     0x0001e50b     0x1bdd lib/lzma/liblzma.a(LzmaDec.o)
 .debug_loc     0x000200e8      0x656 lib/lzo/liblzo.a(lzo1x_decompress.o)
 .debug_loc     0x0002073e       0x45 arch/arm/cpu/aml_meson/m1/libm1.a(timer.o)
 .debug_loc     0x00020783       0xb3 arch/arm/cpu/aml_meson/m1/libm1.a(sdio.o)
 .debug_loc     0x00020836      0x47b arch/arm/cpu/aml_meson/m1/libm1.a(serial.o)
 .debug_loc     0x00020cb1       0x45 arch/arm/cpu/aml_meson/m1/libm1.a(clock.o)
 .debug_loc     0x00020cf6      0x2a2 arch/arm/cpu/aml_meson/m1/libm1.a(pinmux.o)
 .debug_loc     0x00020f98      0x26d arch/arm/cpu/aml_meson/m1/libm1.a(gpio.o)
 .debug_loc     0x00021205       0x99 arch/arm/cpu/aml_meson/m1/libm1.a(tcon.o)
 .debug_loc     0x0002129e      0x3c7 arch/arm/cpu/aml_meson/m1/libm1.a(osd_hw.o)
 .debug_loc     0x00021665      0x176 arch/arm/cpu/aml_meson/m1/libm1.a(canvas.o)
 .debug_loc     0x000217db      0x11d arch/arm/lib/libarm.a(bootm.o)
 .debug_loc     0x000218f8       0x6b arch/arm/lib/libarm.a(reset.o)
 .debug_loc     0x00021963      0x2bb arch/arm/lib/libarm.a(kgdb.o)
 .debug_loc     0x00021c1e      0xd5e fs/fat/libfat.a(fat.o)
 .debug_loc     0x0002297c      0x7c8 fs/ext2/libext2fs.a(ext2fs.o)
 .debug_loc     0x00023144      0x154 fs/ext2/libext2fs.a(dev.o)
 .debug_loc     0x00023298      0x989 fs/ubifs/libubifs.a(ubifs.o)
 .debug_loc     0x00023c21      0x89e fs/ubifs/libubifs.a(super.o)
 .debug_loc     0x000244bf      0x362 fs/ubifs/libubifs.a(sb.o)
 .debug_loc     0x00024821      0x2f2 fs/ubifs/libubifs.a(master.o)
 .debug_loc     0x00024b13     0x1423 fs/ubifs/libubifs.a(lpt.o)
 .debug_loc     0x00025f36      0x2a9 fs/ubifs/libubifs.a(lpt_commit.o)
 .debug_loc     0x000261df      0x55e fs/ubifs/libubifs.a(scan.o)
 .debug_loc     0x0002673d      0xb50 fs/ubifs/libubifs.a(lprops.o)
 .debug_loc     0x0002728d     0x2951 fs/ubifs/libubifs.a(tnc.o)
 .debug_loc     0x00029bde      0x615 fs/ubifs/libubifs.a(tnc_misc.o)
 .debug_loc     0x0002a1f3       0x32 fs/ubifs/libubifs.a(crc16.o)
 .debug_loc     0x0002a225      0x146 fs/ubifs/libubifs.a(budget.o)
 .debug_loc     0x0002a36b      0x3fc fs/ubifs/libubifs.a(orphan.o)
 .debug_loc     0x0002a767     0x1229 fs/ubifs/libubifs.a(recovery.o)
 .debug_loc     0x0002b990      0xe3d fs/ubifs/libubifs.a(replay.o)
 .debug_loc     0x0002c7cd      0x5ee fs/ubifs/libubifs.a(io.o)
 .debug_loc     0x0002cdbb      0x107 fs/ubifs/libubifs.a(log.o)
 .debug_loc     0x0002cec2      0x288 disk/libdisk.a(part.o)
 .debug_loc     0x0002d14a      0x2ff disk/libdisk.a(part_dos.o)
 .debug_loc     0x0002d449      0x4a1 drivers/mmc/libmmc.a(aml_sd_mmc.o)
 .debug_loc     0x0002d8ea      0x195 drivers/mtd/libmtd.a(mtdcore.o)
 .debug_loc     0x0002da7f      0xcc1 drivers/mtd/libmtd.a(mtdpart.o)
 .debug_loc     0x0002e740      0xf54 drivers/mtd/nand/libnand.a(nand_util.o)
 .debug_loc     0x0002f694      0x61a drivers/mtd/ubi/libubi.a(build.o)
 .debug_loc     0x0002fcae      0x963 drivers/mtd/ubi/libubi.a(vtbl.o)
 .debug_loc     0x00030611      0x69b drivers/mtd/ubi/libubi.a(vmt.o)
 .debug_loc     0x00030cac      0x743 drivers/mtd/ubi/libubi.a(upd.o)
 .debug_loc     0x000313ef      0xab9 drivers/mtd/ubi/libubi.a(kapi.o)
 .debug_loc     0x00031ea8     0x1736 drivers/mtd/ubi/libubi.a(eba.o)
 .debug_loc     0x000335de      0xade drivers/mtd/ubi/libubi.a(io.o)
 .debug_loc     0x000340bc     0x104d drivers/mtd/ubi/libubi.a(wl.o)
 .debug_loc     0x00035109      0xdb5 drivers/mtd/ubi/libubi.a(scan.o)
 .debug_loc     0x00035ebe       0xb8 drivers/mtd/ubi/libubi.a(crc32.o)
 .debug_loc     0x00035f76      0x110 drivers/mtd/ubi/libubi.a(misc.o)
 .debug_loc     0x00036086      0x42b drivers/mtd/spi/libspi_flash.a(spi_flash_aml.o)
 .debug_loc     0x000364b1      0x28e drivers/mtd/spi/libspi_flash.a(macronix.o)
 .debug_loc     0x0003673f      0x252 drivers/mtd/spi/libspi_flash.a(sst.o)
 .debug_loc     0x00036991      0x28e drivers/mtd/spi/libspi_flash.a(winbond.o)
 .debug_loc     0x00036c1f      0x341 drivers/spi/libspi.a(amlogic_spi_a.o)
 .debug_loc     0x00036f60      0xbb8 drivers/usb/host/libusb_host.a(dwc_otg_hcd.o)
 .debug_loc     0x00037b18      0x710 common/libcommon.a(devfont.o)
 .debug_loc     0x00038228      0x699 lib/libgeneric.a(rbtree.o)
 .debug_loc     0x000388c1       0x1f arch/arm/cpu/aml_meson/libaml_meson.a(cpu.o)
 .debug_loc     0x000388e0       0x70 arch/arm/cpu/aml_meson/m1/libm1.a(usb.o)

.debug_pubnames
                0x00000000     0x5454
 .debug_pubnames
                0x00000000      0x11f arch/arm/lib/libarm.a(board.o)
 .debug_pubnames
                0x0000011f      0x15f arch/arm/lib/libarm.a(cache.o)
 .debug_pubnames
                0x0000027e       0x9e arch/arm/lib/libarm.a(cache-cp15.o)
 .debug_pubnames
                0x0000031c       0xdf arch/arm/lib/libarm.a(interrupts.o)
 .debug_pubnames
                0x000003fb       0x5c drivers/i2c/libi2c.a(aml_i2c.o)
 .debug_pubnames
                0x00000457      0x23e drivers/mmc/libmmc.a(mmc.o)
 .debug_pubnames
                0x00000695       0x43 drivers/mtd/nand/libnand.a(m1_nand.o)
 .debug_pubnames
                0x000006d8       0x4d drivers/mtd/nand/libnand.a(aml_nand.o)
 .debug_pubnames
                0x00000725       0x9f drivers/mtd/nand/libnand.a(nand_base.o)
 .debug_pubnames
                0x000007c4       0x60 drivers/mtd/nand/libnand.a(nand_bbt.o)
 .debug_pubnames
                0x00000824       0x3f drivers/mtd/nand/libnand.a(nand_ecc.o)
 .debug_pubnames
                0x00000863       0x38 drivers/mtd/nand/libnand.a(nand_ids.o)
 .debug_pubnames
                0x0000089b       0x7c drivers/rtc/librtc.a(aml_rtc.o)
 .debug_pubnames
                0x00000917       0x79 drivers/rtc/librtc.a(rtc-lib.o)
 .debug_pubnames
                0x00000990       0x4c common/libcommon.a(cmd_autoscript.o)
 .debug_pubnames
                0x000009dc       0x3f common/libcommon.a(cmd_bdinfo.o)
 .debug_pubnames
                0x00000a1b       0x36 common/libcommon.a(cmd_bmp.o)
 .debug_pubnames
                0x00000a51       0x6d common/libcommon.a(cmd_boot.o)
 .debug_pubnames
                0x00000abe       0xb3 common/libcommon.a(cmd_bootm.o)
 .debug_pubnames
                0x00000b71       0x3a common/libcommon.a(cmd_console.o)
 .debug_pubnames
                0x00000bab       0x34 common/libcommon.a(cmd_echo.o)
 .debug_pubnames
                0x00000bdf       0x34 common/libcommon.a(cmd_exit.o)
 .debug_pubnames
                0x00000c13       0x62 common/libcommon.a(cmd_ext2.o)
 .debug_pubnames
                0x00000c75       0xb8 common/libcommon.a(cmd_fat.o)
 .debug_pubnames
                0x00000d2d       0x53 common/libcommon.a(cmd_help.o)
 .debug_pubnames
                0x00000d80       0x53 common/libcommon.a(cmd_itest.o)
 .debug_pubnames
                0x00000dd3      0x1c2 common/libcommon.a(cmd_load.o)
 .debug_pubnames
                0x00000f95      0x1d1 common/libcommon.a(cmd_mem.o)
 .debug_pubnames
                0x00001166       0x36 common/libcommon.a(cmd_misc.o)
 .debug_pubnames
                0x0000119c       0x89 common/libcommon.a(cmd_mmc.o)
 .debug_pubnames
                0x00001225      0x106 common/libcommon.a(cmd_mtdparts.o)
 .debug_pubnames
                0x0000132b       0x5b common/libcommon.a(cmd_nand.o)
 .debug_pubnames
                0x00001386      0x16a common/libcommon.a(cmd_nvedit.o)
 .debug_pubnames
                0x000014f0       0x26 common/libcommon.a(cmd_sf.o)
 .debug_pubnames
                0x00001516       0x43 common/libcommon.a(cmd_source.o)
 .debug_pubnames
                0x00001559       0x7a common/libcommon.a(cmd_test.o)
 .debug_pubnames
                0x000015d3       0x27 common/libcommon.a(cmd_ubi.o)
 .debug_pubnames
                0x000015fa       0x97 common/libcommon.a(cmd_ubifs.o)
 .debug_pubnames
                0x00001691      0x142 common/libcommon.a(cmd_usb.o)
 .debug_pubnames
                0x000017d3       0x3a common/libcommon.a(cmd_version.o)
 .debug_pubnames
                0x0000180d       0x3e common/libcommon.a(cmd_ximg.o)
 .debug_pubnames
                0x0000184b       0xa2 common/libcommon.a(command.o)
 .debug_pubnames
                0x000018ed      0x147 common/libcommon.a(console.o)
 .debug_pubnames
                0x00001a34       0xfd common/libcommon.a(dlmalloc.o)
 .debug_pubnames
                0x00001b31       0xc3 common/libcommon.a(env_common.o)
 .debug_pubnames
                0x00001bf4       0x95 common/libcommon.a(env_nand.o)
 .debug_pubnames
                0x00001c89       0x3c common/libcommon.a(exports.o)
 .debug_pubnames
                0x00001cc5      0x11d common/libcommon.a(hush.o)
 .debug_pubnames
                0x00001de2      0x22c common/libcommon.a(image.o)
 .debug_pubnames
                0x0000200e       0x77 common/libcommon.a(kgdb.o)
 .debug_pubnames
                0x00002085       0x65 common/libcommon.a(kgdb_stubs.o)
 .debug_pubnames
                0x000020ea       0xd2 common/libcommon.a(lcd_aml.o)
 .debug_pubnames
                0x000021bc       0x9c common/libcommon.a(main.o)
 .debug_pubnames
                0x00002258       0x22 common/libcommon.a(s_record.o)
 .debug_pubnames
                0x0000227a       0x96 common/libcommon.a(stdio.o)
 .debug_pubnames
                0x00002310      0x339 common/libcommon.a(usb.o)
 .debug_pubnames
                0x00002649      0x166 common/libcommon.a(usb_storage.o)
 .debug_pubnames
                0x000027af       0xd5 common/libcommon.a(xyzModem.o)
 .debug_pubnames
                0x00002884      0x2f0 board/amlogic/8726m_mid_refb04/lib8726m_mid_refb04.a(8726m_mid_refb04.o)
 .debug_pubnames
                0x00002b74       0xbb board/amlogic/8726m_mid_refb04/lib8726m_mid_refb04.a(lcd.o)
 .debug_pubnames
                0x00002c2f       0x4a board/amlogic/8726m_mid_refb04/lib8726m_mid_refb04.a(saradc.o)
 .debug_pubnames
                0x00002c79       0x64 board/amlogic/8726m_mid_refb04/lib8726m_mid_refb04.a(powerkey.o)
 .debug_pubnames
                0x00002cdd       0x79 board/amlogic/8726m_mid_refb04/lib8726m_mid_refb04.a(upgrade.o)
 .debug_pubnames
                0x00002d56       0x5f board/amlogic/8726m_mid_refb04/lib8726m_mid_refb04.a(battery_charging.o)
 .debug_pubnames
                0x00002db5       0x37 board/amlogic/8726m_mid_refb04/lib8726m_mid_refb04.a(debug.o)
 .debug_pubnames
                0x00002dec       0x20 lib/libgeneric.a(crc16.o)
 .debug_pubnames
                0x00002e0c       0x3b lib/libgeneric.a(crc32.o)
 .debug_pubnames
                0x00002e47       0x1d lib/libgeneric.a(ctype.o)
 .debug_pubnames
                0x00002e64       0x46 lib/libgeneric.a(display_options.o)
 .debug_pubnames
                0x00002eaa       0x21 lib/libgeneric.a(div64.o)
 .debug_pubnames
                0x00002ecb       0x3d lib/libgeneric.a(gunzip.o)
 .debug_pubnames
                0x00002f08       0x23 lib/libgeneric.a(net_utils.o)
 .debug_pubnames
                0x00002f2b      0x130 lib/libgeneric.a(string.o)
 .debug_pubnames
                0x0000305b       0x42 lib/libgeneric.a(time.o)
 .debug_pubnames
                0x0000309d       0x87 lib/libgeneric.a(vsprintf.o)
 .debug_pubnames
                0x00003124       0xb4 lib/libgeneric.a(zlib.o)
 .debug_pubnames
                0x000031d8       0x2f lib/lzma/liblzma.a(LzmaTools.o)
 .debug_pubnames
                0x00003207       0xe9 lib/lzma/liblzma.a(LzmaDec.o)
 .debug_pubnames
                0x000032f0       0x40 lib/lzo/liblzo.a(lzo1x_decompress.o)
 .debug_pubnames
                0x00003330       0x5a arch/arm/cpu/aml_meson/m1/libm1.a(timer.o)
 .debug_pubnames
                0x0000338a       0x20 arch/arm/cpu/aml_meson/m1/libm1.a(soc.o)
 .debug_pubnames
                0x000033aa       0x20 arch/arm/cpu/aml_meson/m1/libm1.a(board.o)
 .debug_pubnames
                0x000033ca       0x35 arch/arm/cpu/aml_meson/m1/libm1.a(sdio.o)
 .debug_pubnames
                0x000033ff      0x180 arch/arm/cpu/aml_meson/m1/libm1.a(serial.o)
 .debug_pubnames
                0x0000357f       0x56 arch/arm/cpu/aml_meson/m1/libm1.a(clock.o)
 .debug_pubnames
                0x000035d5       0x73 arch/arm/cpu/aml_meson/m1/libm1.a(pinmux.o)
 .debug_pubnames
                0x00003648      0x130 arch/arm/cpu/aml_meson/m1/libm1.a(gpio.o)
 .debug_pubnames
                0x00003778       0x41 arch/arm/cpu/aml_meson/m1/libm1.a(tcon.o)
 .debug_pubnames
                0x000037b9       0x30 arch/arm/cpu/aml_meson/m1/libm1.a(osd_hw.o)
 .debug_pubnames
                0x000037e9       0x6f arch/arm/cpu/aml_meson/m1/libm1.a(canvas.o)
 .debug_pubnames
                0x00003858       0x50 arch/arm/lib/libarm.a(bootm.o)
 .debug_pubnames
                0x000038a8       0x1f arch/arm/lib/libarm.a(reset.o)
 .debug_pubnames
                0x000038c7       0xf4 arch/arm/lib/libarm.a(kgdb.o)
 .debug_pubnames
                0x000039bb       0xc7 fs/fat/libfat.a(fat.o)
 .debug_pubnames
                0x00003a82      0x14b fs/ext2/libext2fs.a(ext2fs.o)
 .debug_pubnames
                0x00003bcd       0x3c fs/ext2/libext2fs.a(dev.o)
 .debug_pubnames
                0x00003c09       0x7b fs/ubifs/libubifs.a(ubifs.o)
 .debug_pubnames
                0x00003c84       0x9f fs/ubifs/libubifs.a(super.o)
 .debug_pubnames
                0x00003d23       0x43 fs/ubifs/libubifs.a(sb.o)
 .debug_pubnames
                0x00003d66       0x28 fs/ubifs/libubifs.a(master.o)
 .debug_pubnames
                0x00003d8e      0x107 fs/ubifs/libubifs.a(lpt.o)
 .debug_pubnames
                0x00003e95       0x25 fs/ubifs/libubifs.a(lpt_commit.o)
 .debug_pubnames
                0x00003eba       0xa6 fs/ubifs/libubifs.a(scan.o)
 .debug_pubnames
                0x00003f60      0x14c fs/ubifs/libubifs.a(lprops.o)
 .debug_pubnames
                0x000040ac      0x16b fs/ubifs/libubifs.a(tnc.o)
 .debug_pubnames
                0x00004217       0xb1 fs/ubifs/libubifs.a(tnc_misc.o)
 .debug_pubnames
                0x000042c8       0x2c fs/ubifs/libubifs.a(crc16.o)
 .debug_pubnames
                0x000042f4       0x47 fs/ubifs/libubifs.a(budget.o)
 .debug_pubnames
                0x0000433b       0x42 fs/ubifs/libubifs.a(orphan.o)
 .debug_pubnames
                0x0000437d       0xe4 fs/ubifs/libubifs.a(recovery.o)
 .debug_pubnames
                0x00004461       0x44 fs/ubifs/libubifs.a(replay.o)
 .debug_pubnames
                0x000044a5       0x72 fs/ubifs/libubifs.a(io.o)
 .debug_pubnames
                0x00004517       0x39 fs/ubifs/libubifs.a(log.o)
 .debug_pubnames
                0x00004550       0x67 disk/libdisk.a(part.o)
 .debug_pubnames
                0x000045b7       0x52 disk/libdisk.a(part_dos.o)
 .debug_pubnames
                0x00004609       0x5c drivers/mmc/libmmc.a(aml_sd_mmc.o)
 .debug_pubnames
                0x00004665       0x82 drivers/mtd/libmtd.a(mtdcore.o)
 .debug_pubnames
                0x000046e7       0x6a drivers/mtd/libmtd.a(mtdpart.o)
 .debug_pubnames
                0x00004751       0xd3 drivers/mtd/nand/libnand.a(nand_util.o)
 .debug_pubnames
                0x00004824       0xdd drivers/mtd/ubi/libubi.a(build.o)
 .debug_pubnames
                0x00004901       0x47 drivers/mtd/ubi/libubi.a(vtbl.o)
 .debug_pubnames
                0x00004948       0x7b drivers/mtd/ubi/libubi.a(vmt.o)
 .debug_pubnames
                0x000049c3       0x76 drivers/mtd/ubi/libubi.a(upd.o)
 .debug_pubnames
                0x00004a39       0xfe drivers/mtd/ubi/libubi.a(kapi.o)
 .debug_pubnames
                0x00004b37       0xc7 drivers/mtd/ubi/libubi.a(eba.o)
 .debug_pubnames
                0x00004bfe       0xcf drivers/mtd/ubi/libubi.a(io.o)
 .debug_pubnames
                0x00004ccd       0x93 drivers/mtd/ubi/libubi.a(wl.o)
 .debug_pubnames
                0x00004d60       0xc0 drivers/mtd/ubi/libubi.a(scan.o)
 .debug_pubnames
                0x00004e20       0x1f drivers/mtd/ubi/libubi.a(crc32.o)
 .debug_pubnames
                0x00004e3f       0x58 drivers/mtd/ubi/libubi.a(misc.o)
 .debug_pubnames
                0x00004e97       0x92 drivers/mtd/spi/libspi_flash.a(spi_flash_aml.o)
 .debug_pubnames
                0x00004f29       0x3a drivers/mtd/spi/libspi_flash.a(macronix.o)
 .debug_pubnames
                0x00004f63       0x38 drivers/mtd/spi/libspi_flash.a(sst.o)
 .debug_pubnames
                0x00004f9b       0x40 drivers/mtd/spi/libspi_flash.a(winbond.o)
 .debug_pubnames
                0x00004fdb       0xb7 drivers/spi/libspi.a(amlogic_spi_a.o)
 .debug_pubnames
                0x00005092      0x19f drivers/usb/host/libusb_host.a(dwc_otg_hcd.o)
 .debug_pubnames
                0x00005231      0x108 common/libcommon.a(devfont.o)
 .debug_pubnames
                0x00005339       0x78 lib/libgeneric.a(rbtree.o)
 .debug_pubnames
                0x000053b1       0x2b arch/arm/cpu/aml_meson/libaml_meson.a(cpu.o)
 .debug_pubnames
                0x000053dc       0x78 arch/arm/cpu/aml_meson/m1/libm1.a(usb.o)

.debug_str      0x00000000    0x102d6
 .debug_str     0x00000000      0x286 arch/arm/lib/libarm.a(board.o)
                                0x2e6 (size before relaxing)
 .debug_str     0x00000286       0xc9 arch/arm/lib/libarm.a(cache.o)
                                0x1e3 (size before relaxing)
 .debug_str     0x0000034f       0xa2 arch/arm/lib/libarm.a(cache-cp15.o)
                                0x180 (size before relaxing)
 .debug_str     0x000003f1       0xe7 arch/arm/lib/libarm.a(interrupts.o)
                                0x1a6 (size before relaxing)
 .debug_str     0x000004d8      0x585 drivers/i2c/libi2c.a(aml_i2c.o)
                                0x683 (size before relaxing)
 .debug_str     0x00000a5d      0x3d6 drivers/mmc/libmmc.a(mmc.o)
                                0x615 (size before relaxing)
 .debug_str     0x00000e33      0x70d drivers/mtd/nand/libnand.a(m1_nand.o)
                                0xb1f (size before relaxing)
 .debug_str     0x00001540      0x84e drivers/mtd/nand/libnand.a(aml_nand.o)
                               0x136a (size before relaxing)
 .debug_str     0x00001d8e      0x4c1 drivers/mtd/nand/libnand.a(nand_base.o)
                                0xef7 (size before relaxing)
 .debug_str     0x0000224f      0x288 drivers/mtd/nand/libnand.a(nand_bbt.o)
                                0xa14 (size before relaxing)
 .debug_str     0x000024d7       0x8c drivers/mtd/nand/libnand.a(nand_ecc.o)
                                0x4e4 (size before relaxing)
 .debug_str     0x00002563        0xb drivers/mtd/nand/libnand.a(nand_ids.o)
                                0x12c (size before relaxing)
 .debug_str     0x0000256e      0x1b0 drivers/rtc/librtc.a(aml_rtc.o)
                                0x260 (size before relaxing)
 .debug_str     0x0000271e       0xdb drivers/rtc/librtc.a(rtc-lib.o)
                                0x1b1 (size before relaxing)
 .debug_str     0x000027f9      0x170 common/libcommon.a(cmd_autoscript.o)
                                0x274 (size before relaxing)
 .debug_str     0x00002969       0x35 common/libcommon.a(cmd_bdinfo.o)
                                0x216 (size before relaxing)
 .debug_str     0x0000299e      0x144 common/libcommon.a(cmd_bmp.o)
                                0x2af (size before relaxing)
 .debug_str     0x00002ae2       0x5b common/libcommon.a(cmd_boot.o)
                                0x175 (size before relaxing)
 .debug_str     0x00002b3d      0x32e common/libcommon.a(cmd_bootm.o)
                                0x66e (size before relaxing)
 .debug_str     0x00002e6b       0x52 common/libcommon.a(cmd_console.o)
                                0x1a2 (size before relaxing)
 .debug_str     0x00002ebd       0x2b common/libcommon.a(cmd_echo.o)
                                0x12e (size before relaxing)
 .debug_str     0x00002ee8       0x25 common/libcommon.a(cmd_exit.o)
                                0x128 (size before relaxing)
 .debug_str     0x00002f0d       0x97 common/libcommon.a(cmd_ext2.o)
                                0x265 (size before relaxing)
 .debug_str     0x00002fa4       0x90 common/libcommon.a(cmd_fat.o)
                                0x24d (size before relaxing)
 .debug_str     0x00003034       0x5c common/libcommon.a(cmd_help.o)
                                0x167 (size before relaxing)
 .debug_str     0x00003090       0x8a common/libcommon.a(cmd_itest.o)
                                0x1a3 (size before relaxing)
 .debug_str     0x0000311a      0x480 common/libcommon.a(cmd_load.o)
                                0x6f1 (size before relaxing)
 .debug_str     0x0000359a      0x208 common/libcommon.a(cmd_mem.o)
                                0x36b (size before relaxing)
 .debug_str     0x000037a2       0x27 common/libcommon.a(cmd_misc.o)
                                0x13c (size before relaxing)
 .debug_str     0x000037c9       0x77 common/libcommon.a(cmd_mmc.o)
                                0x327 (size before relaxing)
 .debug_str     0x00003840      0x3c7 common/libcommon.a(cmd_mtdparts.o)
                                0x94c (size before relaxing)
 .debug_str     0x00003c07      0x120 common/libcommon.a(cmd_nand.o)
                                0xa56 (size before relaxing)
 .debug_str     0x00003d27      0x13a common/libcommon.a(cmd_nvedit.o)
                                0x37e (size before relaxing)
 .debug_str     0x00003e61       0x97 common/libcommon.a(cmd_sf.o)
                                0x231 (size before relaxing)
 .debug_str     0x00003ef8       0x2b common/libcommon.a(cmd_source.o)
                                0x267 (size before relaxing)
 .debug_str     0x00003f23       0x6e common/libcommon.a(cmd_test.o)
                                0x17b (size before relaxing)
 .debug_str     0x00003f91      0x554 common/libcommon.a(cmd_ubi.o)
                                0xbb6 (size before relaxing)
 .debug_str     0x000044e5       0xa2 common/libcommon.a(cmd_ubifs.o)
                                0x1bd (size before relaxing)
 .debug_str     0x00004587      0x46f common/libcommon.a(cmd_usb.o)
                                0x7b1 (size before relaxing)
 .debug_str     0x000049f6       0x2e common/libcommon.a(cmd_version.o)
                                0x140 (size before relaxing)
 .debug_str     0x00004a24       0x2f common/libcommon.a(cmd_ximg.o)
                                0x26f (size before relaxing)
 .debug_str     0x00004a53      0x15e common/libcommon.a(command.o)
                                0x2ad (size before relaxing)
 .debug_str     0x00004bb1      0x14b common/libcommon.a(console.o)
                                0x4f0 (size before relaxing)
 .debug_str     0x00004cfc      0x2cf common/libcommon.a(dlmalloc.o)
                                0x4f4 (size before relaxing)
 .debug_str     0x00004fcb       0xc5 common/libcommon.a(env_common.o)
                                0x26c (size before relaxing)
 .debug_str     0x00005090       0x79 common/libcommon.a(env_nand.o)
                                0x629 (size before relaxing)
 .debug_str     0x00005109       0x1f common/libcommon.a(exports.o)
                                0x30f (size before relaxing)
 .debug_str     0x00005128      0x4d6 common/libcommon.a(hush.o)
                                0x799 (size before relaxing)
 .debug_str     0x000055fe      0x2b3 common/libcommon.a(image.o)
                                0x71a (size before relaxing)
 .debug_str     0x000058b1      0x25d common/libcommon.a(kgdb.o)
                                0x40b (size before relaxing)
 .debug_str     0x00005b0e       0x39 common/libcommon.a(kgdb_stubs.o)
                                0x115 (size before relaxing)
 .debug_str     0x00005b47      0x53d common/libcommon.a(lcd_aml.o)
                                0x915 (size before relaxing)
 .debug_str     0x00006084       0xfb common/libcommon.a(main.o)
                                0x254 (size before relaxing)
 .debug_str     0x0000617f       0x3a common/libcommon.a(s_record.o)
                                0x104 (size before relaxing)
 .debug_str     0x000061b9       0x5f common/libcommon.a(stdio.o)
                                0x286 (size before relaxing)
 .debug_str     0x00006218      0x4ed common/libcommon.a(usb.o)
                                0x9ff (size before relaxing)
 .debug_str     0x00006705      0x424 common/libcommon.a(usb_storage.o)
                                0x994 (size before relaxing)
 .debug_str     0x00006b29      0x1ab common/libcommon.a(xyzModem.o)
                                0x2d0 (size before relaxing)
 .debug_str     0x00006cd4      0x72c board/amlogic/8726m_mid_refb04/lib8726m_mid_refb04.a(8726m_mid_refb04.o)
                               0x117c (size before relaxing)
 .debug_str     0x00007400      0x46d board/amlogic/8726m_mid_refb04/lib8726m_mid_refb04.a(lcd.o)
                                0x98c (size before relaxing)
 .debug_str     0x0000786d      0x1f5 board/amlogic/8726m_mid_refb04/lib8726m_mid_refb04.a(saradc.o)
                                0x2cc (size before relaxing)
 .debug_str     0x00007a62       0x49 board/amlogic/8726m_mid_refb04/lib8726m_mid_refb04.a(powerkey.o)
                                0x170 (size before relaxing)
 .debug_str     0x00007aab       0xf7 board/amlogic/8726m_mid_refb04/lib8726m_mid_refb04.a(upgrade.o)
                                0x3b5 (size before relaxing)
 .debug_str     0x00007ba2       0xa8 board/amlogic/8726m_mid_refb04/lib8726m_mid_refb04.a(battery_charging.o)
                                0x19e (size before relaxing)
 .debug_str     0x00007c4a       0x2e board/amlogic/8726m_mid_refb04/lib8726m_mid_refb04.a(debug.o)
                                0x28f (size before relaxing)
 .debug_str     0x00007c78       0x3b lib/libgeneric.a(crc16.o)
                                 0xdc (size before relaxing)
 .debug_str     0x00007cb3       0x45 lib/libgeneric.a(crc32.o)
                                0x12e (size before relaxing)
 .debug_str     0x00007cf8        0x8 lib/libgeneric.a(ctype.o)
                                 0x3f (size before relaxing)
 .debug_str     0x00007d00       0x3f lib/libgeneric.a(display_options.o)
                                0x162 (size before relaxing)
 .debug_str     0x00007d3f       0x18 lib/libgeneric.a(div64.o)
                                 0xe6 (size before relaxing)
 .debug_str     0x00007d57       0xd6 lib/libgeneric.a(gunzip.o)
                                0x1c8 (size before relaxing)
 .debug_str     0x00007e2d       0x19 lib/libgeneric.a(net_utils.o)
                                 0xe8 (size before relaxing)
 .debug_str     0x00007e46       0xc3 lib/libgeneric.a(string.o)
                                0x1ba (size before relaxing)
 .debug_str     0x00007f09       0x30 lib/libgeneric.a(time.o)
                                 0xe8 (size before relaxing)
 .debug_str     0x00007f39       0xb1 lib/libgeneric.a(vsprintf.o)
                                0x21b (size before relaxing)
 .debug_str     0x00007fea      0x2b9 lib/libgeneric.a(zlib.o)
                                0x56c (size before relaxing)
 .debug_str     0x000082a3      0x172 lib/lzma/liblzma.a(LzmaTools.o)
                                0x25a (size before relaxing)
 .debug_str     0x00008415      0x39a lib/lzma/liblzma.a(LzmaDec.o)
                                0x5bd (size before relaxing)
 .debug_str     0x000087af      0x179 lib/lzo/liblzo.a(lzo1x_decompress.o)
                                0x2c4 (size before relaxing)
 .debug_str     0x00008928       0x54 arch/arm/cpu/aml_meson/m1/libm1.a(timer.o)
                                0x10d (size before relaxing)
 .debug_str     0x0000897c       0x10 arch/arm/cpu/aml_meson/m1/libm1.a(soc.o)
                                 0xdc (size before relaxing)
 .debug_str     0x0000898c        0xa arch/arm/cpu/aml_meson/m1/libm1.a(board.o)
                                0x1a5 (size before relaxing)
 .debug_str     0x00008996       0x30 arch/arm/cpu/aml_meson/m1/libm1.a(sdio.o)
                                0x18c (size before relaxing)
 .debug_str     0x000089c6      0x1ac arch/arm/cpu/aml_meson/m1/libm1.a(serial.o)
                                0x364 (size before relaxing)
 .debug_str     0x00008b72       0x9f arch/arm/cpu/aml_meson/m1/libm1.a(clock.o)
                                0x171 (size before relaxing)
 .debug_str     0x00008c11       0x7f arch/arm/cpu/aml_meson/m1/libm1.a(pinmux.o)
                                0x150 (size before relaxing)
 .debug_str     0x00008c90      0x13a arch/arm/cpu/aml_meson/m1/libm1.a(gpio.o)
                                0x295 (size before relaxing)
 .debug_str     0x00008dca      0x1ab arch/arm/cpu/aml_meson/m1/libm1.a(tcon.o)
                                0x633 (size before relaxing)
 .debug_str     0x00008f75      0x339 arch/arm/cpu/aml_meson/m1/libm1.a(osd_hw.o)
                                0x713 (size before relaxing)
 .debug_str     0x000092ae       0x6e arch/arm/cpu/aml_meson/m1/libm1.a(canvas.o)
                                0x160 (size before relaxing)
 .debug_str     0x0000931c      0x261 arch/arm/lib/libarm.a(bootm.o)
                                0x5dc (size before relaxing)
 .debug_str     0x0000957d        0x8 arch/arm/lib/libarm.a(reset.o)
                                0x11a (size before relaxing)
 .debug_str     0x00009585       0xc6 arch/arm/lib/libarm.a(kgdb.o)
                                0x2c2 (size before relaxing)
 .debug_str     0x0000964b      0x434 fs/fat/libfat.a(fat.o)
                                0x68e (size before relaxing)
 .debug_str     0x00009a7f      0x543 fs/ext2/libext2fs.a(ext2fs.o)
                                0x70f (size before relaxing)
 .debug_str     0x00009fc2       0x6a fs/ext2/libext2fs.a(dev.o)
                                0x1f6 (size before relaxing)
 .debug_str     0x0000a02c     0x128e fs/ubifs/libubifs.a(ubifs.o)
                               0x1bfa (size before relaxing)
 .debug_str     0x0000b2ba      0x3af fs/ubifs/libubifs.a(super.o)
                               0x1c58 (size before relaxing)
 .debug_str     0x0000b669       0xce fs/ubifs/libubifs.a(sb.o)
                               0x1840 (size before relaxing)
 .debug_str     0x0000b737       0x71 fs/ubifs/libubifs.a(master.o)
                               0x178f (size before relaxing)
 .debug_str     0x0000b7a8      0x3de fs/ubifs/libubifs.a(lpt.o)
                               0x1a75 (size before relaxing)
 .debug_str     0x0000bb86       0x50 fs/ubifs/libubifs.a(lpt_commit.o)
                               0x1716 (size before relaxing)
 .debug_str     0x0000bbd6      0x117 fs/ubifs/libubifs.a(scan.o)
                               0x1952 (size before relaxing)
 .debug_str     0x0000bced      0x266 fs/ubifs/libubifs.a(lprops.o)
                               0x1986 (size before relaxing)
 .debug_str     0x0000bf53      0x474 fs/ubifs/libubifs.a(tnc.o)
                               0x1cfe (size before relaxing)
 .debug_str     0x0000c3c7      0x103 fs/ubifs/libubifs.a(tnc_misc.o)
                               0x186e (size before relaxing)
 .debug_str     0x0000c4ca        0xb fs/ubifs/libubifs.a(crc16.o)
                                 0xf8 (size before relaxing)
 .debug_str     0x0000c4d5       0x53 fs/ubifs/libubifs.a(budget.o)
                               0x1672 (size before relaxing)
 .debug_str     0x0000c528       0xbf fs/ubifs/libubifs.a(orphan.o)
                               0x1830 (size before relaxing)
 .debug_str     0x0000c5e7      0x284 fs/ubifs/libubifs.a(recovery.o)
                               0x1cba (size before relaxing)
 .debug_str     0x0000c86b      0x195 fs/ubifs/libubifs.a(replay.o)
                               0x1c1e (size before relaxing)
 .debug_str     0x0000ca00       0x64 fs/ubifs/libubifs.a(io.o)
                               0x17b5 (size before relaxing)
 .debug_str     0x0000ca64       0x25 fs/ubifs/libubifs.a(log.o)
                               0x165a (size before relaxing)
 .debug_str     0x0000ca89       0xa0 disk/libdisk.a(part.o)
                                0x2ea (size before relaxing)
 .debug_str     0x0000cb29      0x13a disk/libdisk.a(part_dos.o)
                                0x2e1 (size before relaxing)
 .debug_str     0x0000cc63      0x8e8 drivers/mmc/libmmc.a(aml_sd_mmc.o)
                                0xcf9 (size before relaxing)
 .debug_str     0x0000d54b       0x80 drivers/mtd/libmtd.a(mtdcore.o)
                                0x4cd (size before relaxing)
 .debug_str     0x0000d5cb      0x1df drivers/mtd/libmtd.a(mtdpart.o)
                                0x707 (size before relaxing)
 .debug_str     0x0000d7aa      0x308 drivers/mtd/nand/libnand.a(nand_util.o)
                                0xb64 (size before relaxing)
 .debug_str     0x0000dab2      0x24b drivers/mtd/ubi/libubi.a(build.o)
                                0xb86 (size before relaxing)
 .debug_str     0x0000dcfd      0x27e drivers/mtd/ubi/libubi.a(vtbl.o)
                                0xcd9 (size before relaxing)
 .debug_str     0x0000df7b       0xa5 drivers/mtd/ubi/libubi.a(vmt.o)
                                0xa75 (size before relaxing)
 .debug_str     0x0000e020       0xac drivers/mtd/ubi/libubi.a(upd.o)
                                0xa03 (size before relaxing)
 .debug_str     0x0000e0cc       0xcf drivers/mtd/ubi/libubi.a(kapi.o)
                                0xa68 (size before relaxing)
 .debug_str     0x0000e19b      0x1ce drivers/mtd/ubi/libubi.a(eba.o)
                                0xdea (size before relaxing)
 .debug_str     0x0000e369      0x119 drivers/mtd/ubi/libubi.a(io.o)
                                0xb6b (size before relaxing)
 .debug_str     0x0000e482      0x1e0 drivers/mtd/ubi/libubi.a(wl.o)
                                0xda9 (size before relaxing)
 .debug_str     0x0000e662      0x144 drivers/mtd/ubi/libubi.a(scan.o)
                                0xd7b (size before relaxing)
 .debug_str     0x0000e7a6       0x20 drivers/mtd/ubi/libubi.a(crc32.o)
                                 0xf6 (size before relaxing)
 .debug_str     0x0000e7c6       0x3a drivers/mtd/ubi/libubi.a(misc.o)
                                0x919 (size before relaxing)
 .debug_str     0x0000e800       0xe8 drivers/mtd/spi/libspi_flash.a(spi_flash_aml.o)
                                0x1ef (size before relaxing)
 .debug_str     0x0000e8e8       0x8e drivers/mtd/spi/libspi_flash.a(macronix.o)
                                0x1f2 (size before relaxing)
 .debug_str     0x0000e976       0x71 drivers/mtd/spi/libspi_flash.a(sst.o)
                                0x1e5 (size before relaxing)
 .debug_str     0x0000e9e7       0x91 drivers/mtd/spi/libspi_flash.a(winbond.o)
                                0x209 (size before relaxing)
 .debug_str     0x0000ea78       0xa6 drivers/spi/libspi.a(amlogic_spi_a.o)
                                0x1b9 (size before relaxing)
 .debug_str     0x0000eb1e     0x14c3 drivers/usb/host/libusb_host.a(dwc_otg_hcd.o)
                               0x1b72 (size before relaxing)
 .debug_str     0x0000ffe1      0x16a common/libcommon.a(devfont.o)
                                0x2ce (size before relaxing)
 .debug_str     0x0001014b       0xc5 lib/libgeneric.a(rbtree.o)
                                0x1d0 (size before relaxing)
 .debug_str     0x00010210       0x44 arch/arm/cpu/aml_meson/libaml_meson.a(cpu.o)
                                 0xe5 (size before relaxing)
 .debug_str     0x00010254       0x82 arch/arm/cpu/aml_meson/m1/libm1.a(usb.o)
                                0x1b3 (size before relaxing)

.debug_frame    0x00000000     0x9238
 .debug_frame   0x00000000      0x124 arch/arm/lib/libarm.a(board.o)
 .debug_frame   0x00000124      0x1b4 arch/arm/lib/libarm.a(cache.o)
 .debug_frame   0x000002d8       0xdc arch/arm/lib/libarm.a(cache-cp15.o)
 .debug_frame   0x000003b4      0x110 arch/arm/lib/libarm.a(interrupts.o)
 .debug_frame   0x000004c4      0x188 drivers/i2c/libi2c.a(aml_i2c.o)
 .debug_frame   0x0000064c      0x3c0 drivers/mmc/libmmc.a(mmc.o)
 .debug_frame   0x00000a0c       0x38 drivers/mtd/nand/libnand.a(m1_nand.o)
 .debug_frame   0x00000a44      0x448 drivers/mtd/nand/libnand.a(aml_nand.o)
 .debug_frame   0x00000e8c      0x770 drivers/mtd/nand/libnand.a(nand_base.o)
 .debug_frame   0x000015fc      0x1b8 drivers/mtd/nand/libnand.a(nand_bbt.o)
 .debug_frame   0x000017b4       0x4c drivers/mtd/nand/libnand.a(nand_ecc.o)
 .debug_frame   0x00001800      0x158 drivers/rtc/librtc.a(aml_rtc.o)
 .debug_frame   0x00001958       0xcc drivers/rtc/librtc.a(rtc-lib.o)
 .debug_frame   0x00001a24       0x48 common/libcommon.a(cmd_autoscript.o)
 .debug_frame   0x00001a6c       0x40 common/libcommon.a(cmd_bdinfo.o)
 .debug_frame   0x00001aac       0x84 common/libcommon.a(cmd_bmp.o)
 .debug_frame   0x00001b30       0x5c common/libcommon.a(cmd_boot.o)
 .debug_frame   0x00001b8c      0x118 common/libcommon.a(cmd_bootm.o)
 .debug_frame   0x00001ca4       0x38 common/libcommon.a(cmd_console.o)
 .debug_frame   0x00001cdc       0x34 common/libcommon.a(cmd_echo.o)
 .debug_frame   0x00001d10       0x28 common/libcommon.a(cmd_exit.o)
 .debug_frame   0x00001d38       0x60 common/libcommon.a(cmd_ext2.o)
 .debug_frame   0x00001d98       0xa8 common/libcommon.a(cmd_fat.o)
 .debug_frame   0x00001e40       0x2c common/libcommon.a(cmd_help.o)
 .debug_frame   0x00001e6c       0x7c common/libcommon.a(cmd_itest.o)
 .debug_frame   0x00001ee8      0x20c common/libcommon.a(cmd_load.o)
 .debug_frame   0x000020f4      0x17c common/libcommon.a(cmd_mem.o)
 .debug_frame   0x00002270       0x30 common/libcommon.a(cmd_misc.o)
 .debug_frame   0x000022a0       0x64 common/libcommon.a(cmd_mmc.o)
 .debug_frame   0x00002304      0x294 common/libcommon.a(cmd_mtdparts.o)
 .debug_frame   0x00002598       0xf0 common/libcommon.a(cmd_nand.o)
 .debug_frame   0x00002688      0x198 common/libcommon.a(cmd_nvedit.o)
 .debug_frame   0x00002820       0x38 common/libcommon.a(cmd_sf.o)
 .debug_frame   0x00002858       0x48 common/libcommon.a(cmd_source.o)
 .debug_frame   0x000028a0       0x58 common/libcommon.a(cmd_test.o)
 .debug_frame   0x000028f8       0x38 common/libcommon.a(cmd_ubi.o)
 .debug_frame   0x00002930       0x6c common/libcommon.a(cmd_ubifs.o)
 .debug_frame   0x0000299c      0x184 common/libcommon.a(cmd_usb.o)
 .debug_frame   0x00002b20       0x28 common/libcommon.a(cmd_version.o)
 .debug_frame   0x00002b48       0x38 common/libcommon.a(cmd_ximg.o)
 .debug_frame   0x00002b80      0x11c common/libcommon.a(command.o)
 .debug_frame   0x00002c9c      0x258 common/libcommon.a(console.o)
 .debug_frame   0x00002ef4      0x160 common/libcommon.a(dlmalloc.o)
 .debug_frame   0x00003054       0xd4 common/libcommon.a(env_common.o)
 .debug_frame   0x00003128       0xcc common/libcommon.a(env_nand.o)
 .debug_frame   0x000031f4       0x48 common/libcommon.a(exports.o)
 .debug_frame   0x0000323c      0x380 common/libcommon.a(hush.o)
 .debug_frame   0x000035bc      0x25c common/libcommon.a(image.o)
 .debug_frame   0x00003818      0x150 common/libcommon.a(kgdb.o)
 .debug_frame   0x00003968       0x40 common/libcommon.a(kgdb_stubs.o)
 .debug_frame   0x000039a8      0x210 common/libcommon.a(lcd_aml.o)
 .debug_frame   0x00003bb8      0x108 common/libcommon.a(main.o)
 .debug_frame   0x00003cc0       0x64 common/libcommon.a(s_record.o)
 .debug_frame   0x00003d24       0x90 common/libcommon.a(stdio.o)
 .debug_frame   0x00003db4      0x4bc common/libcommon.a(usb.o)
 .debug_frame   0x00004270      0x27c common/libcommon.a(usb_storage.o)
 .debug_frame   0x000044ec      0x140 common/libcommon.a(xyzModem.o)
 .debug_frame   0x0000462c      0x368 board/amlogic/8726m_mid_refb04/lib8726m_mid_refb04.a(8726m_mid_refb04.o)
 .debug_frame   0x00004994      0x124 board/amlogic/8726m_mid_refb04/lib8726m_mid_refb04.a(lcd.o)
 .debug_frame   0x00004ab8       0x58 board/amlogic/8726m_mid_refb04/lib8726m_mid_refb04.a(saradc.o)
 .debug_frame   0x00004b10       0x60 board/amlogic/8726m_mid_refb04/lib8726m_mid_refb04.a(powerkey.o)
 .debug_frame   0x00004b70       0xf0 board/amlogic/8726m_mid_refb04/lib8726m_mid_refb04.a(upgrade.o)
 .debug_frame   0x00004c60       0x48 board/amlogic/8726m_mid_refb04/lib8726m_mid_refb04.a(battery_charging.o)
 .debug_frame   0x00004ca8       0x54 board/amlogic/8726m_mid_refb04/lib8726m_mid_refb04.a(debug.o)
 .debug_frame   0x00004cfc       0x28 lib/libgeneric.a(crc16.o)
 .debug_frame   0x00004d24       0x5c lib/libgeneric.a(crc32.o)
 .debug_frame   0x00004d80       0x78 lib/libgeneric.a(display_options.o)
 .debug_frame   0x00004df8       0x38 lib/libgeneric.a(div64.o)
 .debug_frame   0x00004e30       0x84 lib/libgeneric.a(gunzip.o)
 .debug_frame   0x00004eb4       0x34 lib/libgeneric.a(net_utils.o)
 .debug_frame   0x00004ee8      0x208 lib/libgeneric.a(string.o)
 .debug_frame   0x000050f0       0x88 lib/libgeneric.a(time.o)
 .debug_frame   0x00005178      0x170 lib/libgeneric.a(vsprintf.o)
 .debug_frame   0x000052e8      0x140 lib/libgeneric.a(zlib.o)
 .debug_frame   0x00005428       0x64 lib/lzma/liblzma.a(LzmaTools.o)
 .debug_frame   0x0000548c      0x1dc lib/lzma/liblzma.a(LzmaDec.o)
 .debug_frame   0x00005668       0x60 lib/lzo/liblzo.a(lzo1x_decompress.o)
 .debug_frame   0x000056c8       0x68 arch/arm/cpu/aml_meson/m1/libm1.a(timer.o)
 .debug_frame   0x00005730       0x20 arch/arm/cpu/aml_meson/m1/libm1.a(soc.o)
 .debug_frame   0x00005750       0x20 arch/arm/cpu/aml_meson/m1/libm1.a(board.o)
 .debug_frame   0x00005770       0x38 arch/arm/cpu/aml_meson/m1/libm1.a(sdio.o)
 .debug_frame   0x000057a8      0x1d4 arch/arm/cpu/aml_meson/m1/libm1.a(serial.o)
 .debug_frame   0x0000597c       0x48 arch/arm/cpu/aml_meson/m1/libm1.a(clock.o)
 .debug_frame   0x000059c4       0xa0 arch/arm/cpu/aml_meson/m1/libm1.a(pinmux.o)
 .debug_frame   0x00005a64      0x124 arch/arm/cpu/aml_meson/m1/libm1.a(gpio.o)
 .debug_frame   0x00005b88       0x70 arch/arm/cpu/aml_meson/m1/libm1.a(tcon.o)
 .debug_frame   0x00005bf8       0xb4 arch/arm/cpu/aml_meson/m1/libm1.a(osd_hw.o)
 .debug_frame   0x00005cac       0x90 arch/arm/cpu/aml_meson/m1/libm1.a(canvas.o)
 .debug_frame   0x00005d3c       0x50 arch/arm/lib/libarm.a(bootm.o)
 .debug_frame   0x00005d8c       0x28 arch/arm/lib/libarm.a(reset.o)
 .debug_frame   0x00005db4      0x110 arch/arm/lib/libarm.a(kgdb.o)
 .debug_frame   0x00005ec4      0x1c8 fs/fat/libfat.a(fat.o)
 .debug_frame   0x0000608c      0x170 fs/ext2/libext2fs.a(ext2fs.o)
 .debug_frame   0x000061fc       0x4c fs/ext2/libext2fs.a(dev.o)
 .debug_frame   0x00006248      0x114 fs/ubifs/libubifs.a(ubifs.o)
 .debug_frame   0x0000635c      0x160 fs/ubifs/libubifs.a(super.o)
 .debug_frame   0x000064bc       0x84 fs/ubifs/libubifs.a(sb.o)
 .debug_frame   0x00006540       0x38 fs/ubifs/libubifs.a(master.o)
 .debug_frame   0x00006578      0x214 fs/ubifs/libubifs.a(lpt.o)
 .debug_frame   0x0000678c       0x34 fs/ubifs/libubifs.a(lpt_commit.o)
 .debug_frame   0x000067c0       0xe8 fs/ubifs/libubifs.a(scan.o)
 .debug_frame   0x000068a8      0x1e4 fs/ubifs/libubifs.a(lprops.o)
 .debug_frame   0x00006a8c      0x528 fs/ubifs/libubifs.a(tnc.o)
 .debug_frame   0x00006fb4       0xd0 fs/ubifs/libubifs.a(tnc_misc.o)
 .debug_frame   0x00007084       0x28 fs/ubifs/libubifs.a(crc16.o)
 .debug_frame   0x000070ac       0x58 fs/ubifs/libubifs.a(budget.o)
 .debug_frame   0x00007104       0x58 fs/ubifs/libubifs.a(orphan.o)
 .debug_frame   0x0000715c      0x1fc fs/ubifs/libubifs.a(recovery.o)
 .debug_frame   0x00007358       0x80 fs/ubifs/libubifs.a(replay.o)
 .debug_frame   0x000073d8       0xb8 fs/ubifs/libubifs.a(io.o)
 .debug_frame   0x00007490       0x40 fs/ubifs/libubifs.a(log.o)
 .debug_frame   0x000074d0       0x98 disk/libdisk.a(part.o)
 .debug_frame   0x00007568       0xb0 disk/libdisk.a(part_dos.o)
 .debug_frame   0x00007618       0x94 drivers/mmc/libmmc.a(aml_sd_mmc.o)
 .debug_frame   0x000076ac       0x84 drivers/mtd/libmtd.a(mtdcore.o)
 .debug_frame   0x00007730      0x2c8 drivers/mtd/libmtd.a(mtdpart.o)
 .debug_frame   0x000079f8      0x1a4 drivers/mtd/nand/libnand.a(nand_util.o)
 .debug_frame   0x00007b9c      0x12c drivers/mtd/ubi/libubi.a(build.o)
 .debug_frame   0x00007cc8       0xac drivers/mtd/ubi/libubi.a(vtbl.o)
 .debug_frame   0x00007d74       0xc4 drivers/mtd/ubi/libubi.a(vmt.o)
 .debug_frame   0x00007e38       0xf0 drivers/mtd/ubi/libubi.a(upd.o)
 .debug_frame   0x00007f28      0x164 drivers/mtd/ubi/libubi.a(kapi.o)
 .debug_frame   0x0000808c      0x22c drivers/mtd/ubi/libubi.a(eba.o)
 .debug_frame   0x000082b8      0x194 drivers/mtd/ubi/libubi.a(io.o)
 .debug_frame   0x0000844c      0x284 drivers/mtd/ubi/libubi.a(wl.o)
 .debug_frame   0x000086d0      0x148 drivers/mtd/ubi/libubi.a(scan.o)
 .debug_frame   0x00008818       0x2c drivers/mtd/ubi/libubi.a(crc32.o)
 .debug_frame   0x00008844       0x58 drivers/mtd/ubi/libubi.a(misc.o)
 .debug_frame   0x0000889c       0xd8 drivers/mtd/spi/libspi_flash.a(spi_flash_aml.o)
 .debug_frame   0x00008974       0x94 drivers/mtd/spi/libspi_flash.a(macronix.o)
 .debug_frame   0x00008a08       0x94 drivers/mtd/spi/libspi_flash.a(sst.o)
 .debug_frame   0x00008a9c       0x94 drivers/mtd/spi/libspi_flash.a(winbond.o)
 .debug_frame   0x00008b30       0xcc drivers/spi/libspi.a(amlogic_spi_a.o)
 .debug_frame   0x00008bfc      0x224 drivers/usb/host/libusb_host.a(dwc_otg_hcd.o)
 .debug_frame   0x00008e20      0x194 common/libcommon.a(devfont.o)
 .debug_frame   0x00008fb4       0xd0 lib/libgeneric.a(rbtree.o)
 .debug_frame   0x00009084       0x28 arch/arm/cpu/aml_meson/libaml_meson.a(cpu.o)
 .debug_frame   0x000090ac       0x7c arch/arm/cpu/aml_meson/m1/libm1.a(usb.o)
 .debug_frame   0x00009128       0x20 /opt/toolchains/arm-mlogic/bin/../lib/gcc/arm-none-eabi/4.4.1/libgcc.a(_udivsi3.o)
 .debug_frame   0x00009148       0x20 /opt/toolchains/arm-mlogic/bin/../lib/gcc/arm-none-eabi/4.4.1/libgcc.a(_divsi3.o)
 .debug_frame   0x00009168       0x58 /opt/toolchains/arm-mlogic/bin/../lib/gcc/arm-none-eabi/4.4.1/libgcc.a(bpabi.o)
 .debug_frame   0x000091c0       0x3c /opt/toolchains/arm-mlogic/bin/../lib/gcc/arm-none-eabi/4.4.1/libgcc.a(_divdi3.o)
 .debug_frame   0x000091fc       0x3c /opt/toolchains/arm-mlogic/bin/../lib/gcc/arm-none-eabi/4.4.1/libgcc.a(_udivdi3.o)

.debug_ranges   0x00000000     0x2238
 .debug_ranges  0x00000000       0x60 drivers/i2c/libi2c.a(aml_i2c.o)
 .debug_ranges  0x00000060       0x18 drivers/mmc/libmmc.a(mmc.o)
 .debug_ranges  0x00000078       0x40 drivers/mtd/nand/libnand.a(m1_nand.o)
 .debug_ranges  0x000000b8       0x70 drivers/mtd/nand/libnand.a(aml_nand.o)
 .debug_ranges  0x00000128       0x30 drivers/mtd/nand/libnand.a(nand_base.o)
 .debug_ranges  0x00000158       0xd0 drivers/mtd/nand/libnand.a(nand_bbt.o)
 .debug_ranges  0x00000228       0x70 drivers/rtc/librtc.a(aml_rtc.o)
 .debug_ranges  0x00000298       0x18 common/libcommon.a(cmd_echo.o)
 .debug_ranges  0x000002b0       0x30 common/libcommon.a(cmd_load.o)
 .debug_ranges  0x000002e0       0x18 common/libcommon.a(cmd_mem.o)
 .debug_ranges  0x000002f8      0x238 common/libcommon.a(cmd_mtdparts.o)
 .debug_ranges  0x00000530       0x60 common/libcommon.a(cmd_nand.o)
 .debug_ranges  0x00000590       0x70 common/libcommon.a(cmd_nvedit.o)
 .debug_ranges  0x00000600      0x108 common/libcommon.a(cmd_ubi.o)
 .debug_ranges  0x00000708       0x30 common/libcommon.a(cmd_usb.o)
 .debug_ranges  0x00000738       0x60 common/libcommon.a(command.o)
 .debug_ranges  0x00000798      0x1f0 common/libcommon.a(hush.o)
 .debug_ranges  0x00000988       0x60 common/libcommon.a(kgdb.o)
 .debug_ranges  0x000009e8       0x38 common/libcommon.a(lcd_aml.o)
 .debug_ranges  0x00000a20       0x60 common/libcommon.a(main.o)
 .debug_ranges  0x00000a80       0x78 common/libcommon.a(usb.o)
 .debug_ranges  0x00000af8       0x70 common/libcommon.a(usb_storage.o)
 .debug_ranges  0x00000b68       0x30 common/libcommon.a(xyzModem.o)
 .debug_ranges  0x00000b98      0x230 board/amlogic/8726m_mid_refb04/lib8726m_mid_refb04.a(8726m_mid_refb04.o)
 .debug_ranges  0x00000dc8       0x18 lib/libgeneric.a(net_utils.o)
 .debug_ranges  0x00000de0       0x18 lib/libgeneric.a(time.o)
 .debug_ranges  0x00000df8       0x90 lib/libgeneric.a(vsprintf.o)
 .debug_ranges  0x00000e88       0x18 lib/libgeneric.a(zlib.o)
 .debug_ranges  0x00000ea0      0x140 lib/lzma/liblzma.a(LzmaDec.o)
 .debug_ranges  0x00000fe0       0x30 lib/lzo/liblzo.a(lzo1x_decompress.o)
 .debug_ranges  0x00001010       0x78 arch/arm/cpu/aml_meson/m1/libm1.a(osd_hw.o)
 .debug_ranges  0x00001088      0x158 fs/fat/libfat.a(fat.o)
 .debug_ranges  0x000011e0       0x90 fs/ext2/libext2fs.a(ext2fs.o)
 .debug_ranges  0x00001270       0x18 fs/ext2/libext2fs.a(dev.o)
 .debug_ranges  0x00001288      0x188 fs/ubifs/libubifs.a(ubifs.o)
 .debug_ranges  0x00001410      0x108 fs/ubifs/libubifs.a(super.o)
 .debug_ranges  0x00001518      0x140 fs/ubifs/libubifs.a(lpt.o)
 .debug_ranges  0x00001658       0x30 fs/ubifs/libubifs.a(lpt_commit.o)
 .debug_ranges  0x00001688       0x18 fs/ubifs/libubifs.a(scan.o)
 .debug_ranges  0x000016a0       0xd8 fs/ubifs/libubifs.a(tnc.o)
 .debug_ranges  0x00001778      0x128 fs/ubifs/libubifs.a(tnc_misc.o)
 .debug_ranges  0x000018a0       0xe8 fs/ubifs/libubifs.a(orphan.o)
 .debug_ranges  0x00001988      0x180 fs/ubifs/libubifs.a(recovery.o)
 .debug_ranges  0x00001b08      0x248 fs/ubifs/libubifs.a(replay.o)
 .debug_ranges  0x00001d50       0x30 disk/libdisk.a(part_dos.o)
 .debug_ranges  0x00001d80       0x60 drivers/mtd/libmtd.a(mtdpart.o)
 .debug_ranges  0x00001de0       0xa0 drivers/mtd/nand/libnand.a(nand_util.o)
 .debug_ranges  0x00001e80       0x78 drivers/mtd/ubi/libubi.a(build.o)
 .debug_ranges  0x00001ef8       0x60 drivers/mtd/ubi/libubi.a(eba.o)
 .debug_ranges  0x00001f58       0xd8 drivers/mtd/ubi/libubi.a(wl.o)
 .debug_ranges  0x00002030       0xd8 drivers/mtd/ubi/libubi.a(scan.o)
 .debug_ranges  0x00002108       0xe8 drivers/usb/host/libusb_host.a(dwc_otg_hcd.o)
 .debug_ranges  0x000021f0       0x48 lib/libgeneric.a(rbtree.o)

Cross Reference Table

Symbol                                            File
AsciiPrintf                                       common/libcommon.a(devfont.o)
CYGACC_COMM_IF_GETC_TIMEOUT                       common/libcommon.a(xyzModem.o)
CYGACC_COMM_IF_PUTC                               common/libcommon.a(xyzModem.o)
ClearLine                                         common/libcommon.a(devfont.o)
DrawFont                                          common/libcommon.a(devfont.o)
DrawPixel                                         common/libcommon.a(devfont.o)
DrawRect                                          common/libcommon.a(devfont.o)
DrawText                                          common/libcommon.a(devfont.o)
GetCharHeight                                     common/libcommon.a(devfont.o)
GetCharWidth                                      common/libcommon.a(devfont.o)
GetTextSize                                       common/libcommon.a(devfont.o)
ISO_88591_18Font                                  board/amlogic/8726m_mid_refb04/lib8726m_mid_refb04.a(8726m_mid_refb04.o)
ISO_88591_20Font                                  board/amlogic/8726m_mid_refb04/lib8726m_mid_refb04.a(8726m_mid_refb04.o)
ISO_88591_20GetCharacterFontBit                   board/amlogic/8726m_mid_refb04/lib8726m_mid_refb04.a(8726m_mid_refb04.o)
ISO_88591_24Font                                  board/amlogic/8726m_mid_refb04/lib8726m_mid_refb04.a(8726m_mid_refb04.o)
ISO_88591_24GetCharacterFontBit                   board/amlogic/8726m_mid_refb04/lib8726m_mid_refb04.a(8726m_mid_refb04.o)
ISO_88591_32Font                                  board/amlogic/8726m_mid_refb04/lib8726m_mid_refb04.a(8726m_mid_refb04.o)
ISO_88591_40Font                                  board/amlogic/8726m_mid_refb04/lib8726m_mid_refb04.a(8726m_mid_refb04.o)
LzmaDec_Allocate                                  lib/lzma/liblzma.a(LzmaDec.o)
LzmaDec_AllocateProbs                             lib/lzma/liblzma.a(LzmaDec.o)
LzmaDec_DecodeToBuf                               lib/lzma/liblzma.a(LzmaDec.o)
LzmaDec_DecodeToDic                               lib/lzma/liblzma.a(LzmaDec.o)
LzmaDec_Free                                      lib/lzma/liblzma.a(LzmaDec.o)
LzmaDec_FreeProbs                                 lib/lzma/liblzma.a(LzmaDec.o)
LzmaDec_Init                                      lib/lzma/liblzma.a(LzmaDec.o)
LzmaDec_InitDicAndState                           lib/lzma/liblzma.a(LzmaDec.o)
LzmaDecode                                        lib/lzma/liblzma.a(LzmaDec.o)
                                                  lib/lzma/liblzma.a(LzmaTools.o)
LzmaProps_Decode                                  lib/lzma/liblzma.a(LzmaDec.o)
RegisterFont                                      common/libcommon.a(devfont.o)
                                                  board/amlogic/8726m_mid_refb04/lib8726m_mid_refb04.a(8726m_mid_refb04.o)
SetFont                                           common/libcommon.a(devfont.o)
UnregisterFont                                    common/libcommon.a(devfont.o)
___strtok                                         lib/libgeneric.a(string.o)
__aeabi_idiv                                      /opt/toolchains/arm-mlogic/bin/../lib/gcc/arm-none-eabi/4.4.1/libgcc.a(_divsi3.o)
                                                  drivers/usb/host/libusb_host.a(dwc_otg_hcd.o)
                                                  fs/ubifs/libubifs.a(budget.o)
                                                  fs/ubifs/libubifs.a(super.o)
                                                  fs/ext2/libext2fs.a(ext2fs.o)
                                                  board/amlogic/8726m_mid_refb04/lib8726m_mid_refb04.a(saradc.o)
                                                  common/libcommon.a(cmd_mem.o)
                                                  drivers/mtd/nand/libnand.a(aml_nand.o)
__aeabi_idiv0                                     /opt/toolchains/arm-mlogic/bin/../lib/gcc/arm-none-eabi/4.4.1/libgcc.a(_dvmd_tls.o)
                                                  /opt/toolchains/arm-mlogic/bin/../lib/gcc/arm-none-eabi/4.4.1/libgcc.a(_divsi3.o)
                                                  /opt/toolchains/arm-mlogic/bin/../lib/gcc/arm-none-eabi/4.4.1/libgcc.a(_udivsi3.o)
__aeabi_idivmod                                   /opt/toolchains/arm-mlogic/bin/../lib/gcc/arm-none-eabi/4.4.1/libgcc.a(_divsi3.o)
                                                  drivers/mtd/ubi/libubi.a(vmt.o)
                                                  drivers/mtd/ubi/libubi.a(vtbl.o)
                                                  fs/ubifs/libubifs.a(recovery.o)
                                                  fs/ubifs/libubifs.a(scan.o)
                                                  fs/ubifs/libubifs.a(lpt.o)
                                                  fs/ubifs/libubifs.a(master.o)
                                                  fs/ext2/libext2fs.a(ext2fs.o)
                                                  common/libcommon.a(cmd_ubi.o)
                                                  drivers/mtd/nand/libnand.a(aml_nand.o)
__aeabi_ldiv0                                     /opt/toolchains/arm-mlogic/bin/../lib/gcc/arm-none-eabi/4.4.1/libgcc.a(_dvmd_tls.o)
                                                  /opt/toolchains/arm-mlogic/bin/../lib/gcc/arm-none-eabi/4.4.1/libgcc.a(_aeabi_uldivmod.o)
                                                  /opt/toolchains/arm-mlogic/bin/../lib/gcc/arm-none-eabi/4.4.1/libgcc.a(_aeabi_ldivmod.o)
__aeabi_ldivmod                                   /opt/toolchains/arm-mlogic/bin/../lib/gcc/arm-none-eabi/4.4.1/libgcc.a(_aeabi_ldivmod.o)
                                                  drivers/mtd/nand/libnand.a(nand_util.o)
                                                  drivers/mtd/nand/libnand.a(aml_nand.o)
__aeabi_llsl                                      /opt/toolchains/arm-mlogic/bin/../lib/gcc/arm-none-eabi/4.4.1/libgcc.a(_ashldi3.o)
                                                  drivers/mtd/nand/libnand.a(nand_bbt.o)
                                                  drivers/mtd/nand/libnand.a(nand_base.o)
__aeabi_llsr                                      /opt/toolchains/arm-mlogic/bin/../lib/gcc/arm-none-eabi/4.4.1/libgcc.a(_lshrdi3.o)
                                                  drivers/mtd/nand/libnand.a(nand_bbt.o)
                                                  drivers/mtd/nand/libnand.a(nand_base.o)
__aeabi_uidiv                                     /opt/toolchains/arm-mlogic/bin/../lib/gcc/arm-none-eabi/4.4.1/libgcc.a(_udivsi3.o)
                                                  /opt/toolchains/arm-mlogic/bin/../lib/gcc/arm-none-eabi/4.4.1/libgcc.a(_udivdi3.o)
                                                  /opt/toolchains/arm-mlogic/bin/../lib/gcc/arm-none-eabi/4.4.1/libgcc.a(_divdi3.o)
                                                  drivers/usb/host/libusb_host.a(dwc_otg_hcd.o)
                                                  drivers/mtd/ubi/libubi.a(scan.o)
                                                  drivers/mtd/ubi/libubi.a(upd.o)
                                                  drivers/mtd/ubi/libubi.a(vmt.o)
                                                  drivers/mtd/ubi/libubi.a(build.o)
                                                  drivers/mtd/nand/libnand.a(nand_util.o)
                                                  drivers/mtd/libmtd.a(mtdpart.o)
                                                  drivers/mmc/libmmc.a(aml_sd_mmc.o)
                                                  fs/ubifs/libubifs.a(budget.o)
                                                  fs/ubifs/libubifs.a(lpt.o)
                                                  fs/ubifs/libubifs.a(super.o)
                                                  fs/ext2/libext2fs.a(ext2fs.o)
                                                  arch/arm/cpu/aml_meson/m1/libm1.a(clock.o)
                                                  lib/libgeneric.a(div64.o)
                                                  lib/libgeneric.a(display_options.o)
                                                  board/amlogic/8726m_mid_refb04/lib8726m_mid_refb04.a(battery_charging.o)
                                                  common/libcommon.a(cmd_usb.o)
                                                  common/libcommon.a(cmd_ubi.o)
                                                  drivers/mtd/nand/libnand.a(nand_base.o)
                                                  drivers/mtd/nand/libnand.a(aml_nand.o)
                                                  drivers/mmc/libmmc.a(mmc.o)
                                                  drivers/i2c/libi2c.a(aml_i2c.o)
__aeabi_uidivmod                                  /opt/toolchains/arm-mlogic/bin/../lib/gcc/arm-none-eabi/4.4.1/libgcc.a(_udivsi3.o)
                                                  /opt/toolchains/arm-mlogic/bin/../lib/gcc/arm-none-eabi/4.4.1/libgcc.a(_udivdi3.o)
                                                  /opt/toolchains/arm-mlogic/bin/../lib/gcc/arm-none-eabi/4.4.1/libgcc.a(_divdi3.o)
                                                  drivers/mtd/spi/libspi_flash.a(winbond.o)
                                                  drivers/mtd/spi/libspi_flash.a(sst.o)
                                                  drivers/mtd/spi/libspi_flash.a(macronix.o)
                                                  drivers/mtd/ubi/libubi.a(upd.o)
                                                  drivers/mtd/ubi/libubi.a(vmt.o)
                                                  drivers/mtd/nand/libnand.a(nand_util.o)
                                                  drivers/mtd/libmtd.a(mtdpart.o)
                                                  fs/ext2/libext2fs.a(ext2fs.o)
                                                  lib/libgeneric.a(zlib.o)
                                                  common/libcommon.a(dlmalloc.o)
                                                  common/libcommon.a(cmd_mtdparts.o)
                                                  drivers/mtd/nand/libnand.a(aml_nand.o)
__aeabi_uldivmod                                  /opt/toolchains/arm-mlogic/bin/../lib/gcc/arm-none-eabi/4.4.1/libgcc.a(_aeabi_uldivmod.o)
                                                  drivers/mtd/nand/libnand.a(nand_util.o)
                                                  drivers/mmc/libmmc.a(aml_sd_mmc.o)
                                                  common/libcommon.a(cmd_mtdparts.o)
__arch_preboot_os                                 common/libcommon.a(cmd_bootm.o)
__ashldi3                                         /opt/toolchains/arm-mlogic/bin/../lib/gcc/arm-none-eabi/4.4.1/libgcc.a(_ashldi3.o)
__blue_LED_off                                    arch/arm/lib/libarm.a(board.o)
__blue_LED_on                                     arch/arm/lib/libarm.a(board.o)
__bss_start                                       arch/arm/cpu/aml_meson/start.o
__clzsi2                                          /opt/toolchains/arm-mlogic/bin/../lib/gcc/arm-none-eabi/4.4.1/libgcc.a(_clzsi2.o)
                                                  /opt/toolchains/arm-mlogic/bin/../lib/gcc/arm-none-eabi/4.4.1/libgcc.a(_udivdi3.o)
                                                  /opt/toolchains/arm-mlogic/bin/../lib/gcc/arm-none-eabi/4.4.1/libgcc.a(_divdi3.o)
__coloured_LED_init                               arch/arm/lib/libarm.a(board.o)
__div64_32                                        lib/libgeneric.a(div64.o)
                                                  drivers/mtd/ubi/libubi.a(scan.o)
                                                  drivers/mtd/ubi/libubi.a(upd.o)
                                                  drivers/mtd/ubi/libubi.a(vmt.o)
                                                  drivers/mtd/ubi/libubi.a(build.o)
                                                  drivers/mtd/libmtd.a(mtdpart.o)
                                                  fs/ubifs/libubifs.a(budget.o)
                                                  fs/ubifs/libubifs.a(lpt.o)
                                                  fs/ubifs/libubifs.a(super.o)
                                                  lib/libgeneric.a(vsprintf.o)
                                                  drivers/mmc/libmmc.a(mmc.o)
__divdi3                                          /opt/toolchains/arm-mlogic/bin/../lib/gcc/arm-none-eabi/4.4.1/libgcc.a(_divdi3.o)
                                                  /opt/toolchains/arm-mlogic/bin/../lib/gcc/arm-none-eabi/4.4.1/libgcc.a(bpabi.o)
__divsi3                                          /opt/toolchains/arm-mlogic/bin/../lib/gcc/arm-none-eabi/4.4.1/libgcc.a(_divsi3.o)
__gnu_ldivmod_helper                              /opt/toolchains/arm-mlogic/bin/../lib/gcc/arm-none-eabi/4.4.1/libgcc.a(bpabi.o)
                                                  /opt/toolchains/arm-mlogic/bin/../lib/gcc/arm-none-eabi/4.4.1/libgcc.a(_aeabi_ldivmod.o)
__gnu_uldivmod_helper                             /opt/toolchains/arm-mlogic/bin/../lib/gcc/arm-none-eabi/4.4.1/libgcc.a(bpabi.o)
                                                  /opt/toolchains/arm-mlogic/bin/../lib/gcc/arm-none-eabi/4.4.1/libgcc.a(_aeabi_uldivmod.o)
__green_LED_off                                   arch/arm/lib/libarm.a(board.o)
__green_LED_on                                    arch/arm/lib/libarm.a(board.o)
__lshrdi3                                         /opt/toolchains/arm-mlogic/bin/../lib/gcc/arm-none-eabi/4.4.1/libgcc.a(_lshrdi3.o)
__red_LED_off                                     arch/arm/lib/libarm.a(board.o)
__red_LED_on                                      arch/arm/lib/libarm.a(board.o)
__serial_set_pin_port                             arch/arm/cpu/aml_meson/m1/libm1.a(serial.o)
__show_boot_progress                              common/libcommon.a(main.o)
__u_boot_cmd_autoscr                              common/libcommon.a(cmd_autoscript.o)
__u_boot_cmd_base                                 common/libcommon.a(cmd_mem.o)
__u_boot_cmd_bdinfo                               common/libcommon.a(cmd_bdinfo.o)
__u_boot_cmd_bmp                                  common/libcommon.a(cmd_bmp.o)
__u_boot_cmd_boot                                 common/libcommon.a(cmd_bootm.o)
__u_boot_cmd_bootd                                common/libcommon.a(cmd_bootm.o)
__u_boot_cmd_bootm                                common/libcommon.a(cmd_bootm.o)
__u_boot_cmd_chpart                               common/libcommon.a(cmd_mtdparts.o)
__u_boot_cmd_cmp                                  common/libcommon.a(cmd_mem.o)
__u_boot_cmd_coninfo                              common/libcommon.a(cmd_console.o)
__u_boot_cmd_cp                                   common/libcommon.a(cmd_mem.o)
__u_boot_cmd_crc32                                common/libcommon.a(cmd_mem.o)
__u_boot_cmd_defenv                               common/libcommon.a(cmd_nvedit.o)
__u_boot_cmd_echo                                 common/libcommon.a(cmd_echo.o)
__u_boot_cmd_editenv                              common/libcommon.a(cmd_nvedit.o)
__u_boot_cmd_end                                  common/libcommon.a(command.o)
                                                  common/libcommon.a(cmd_help.o)
__u_boot_cmd_exit                                 common/libcommon.a(cmd_exit.o)
__u_boot_cmd_ext2load                             common/libcommon.a(cmd_ext2.o)
__u_boot_cmd_ext2ls                               common/libcommon.a(cmd_ext2.o)
__u_boot_cmd_false                                common/libcommon.a(cmd_test.o)
__u_boot_cmd_fatexist                             common/libcommon.a(cmd_fat.o)
__u_boot_cmd_fatinfo                              common/libcommon.a(cmd_fat.o)
__u_boot_cmd_fatload                              common/libcommon.a(cmd_fat.o)
__u_boot_cmd_fatls                                common/libcommon.a(cmd_fat.o)
__u_boot_cmd_go                                   common/libcommon.a(cmd_boot.o)
__u_boot_cmd_help                                 common/libcommon.a(cmd_help.o)
__u_boot_cmd_imxtract                             common/libcommon.a(cmd_ximg.o)
__u_boot_cmd_itest                                common/libcommon.a(cmd_itest.o)
__u_boot_cmd_kgdb                                 common/libcommon.a(kgdb.o)
__u_boot_cmd_lcd                                  common/libcommon.a(lcd_aml.o)
__u_boot_cmd_loadb                                common/libcommon.a(cmd_load.o)
__u_boot_cmd_loadenv                              common/libcommon.a(cmd_nvedit.o)
__u_boot_cmd_loads                                common/libcommon.a(cmd_load.o)
__u_boot_cmd_loadx                                common/libcommon.a(cmd_load.o)
__u_boot_cmd_loady                                common/libcommon.a(cmd_load.o)
__u_boot_cmd_loop                                 common/libcommon.a(cmd_mem.o)
__u_boot_cmd_md                                   common/libcommon.a(cmd_mem.o)
__u_boot_cmd_mm                                   common/libcommon.a(cmd_mem.o)
__u_boot_cmd_mmc                                  common/libcommon.a(cmd_mmc.o)
__u_boot_cmd_mmcinfo                              common/libcommon.a(cmd_mmc.o)
__u_boot_cmd_mmcselect                            common/libcommon.a(cmd_mmc.o)
__u_boot_cmd_mtdparts                             common/libcommon.a(cmd_mtdparts.o)
__u_boot_cmd_mtest                                common/libcommon.a(cmd_mem.o)
__u_boot_cmd_mw                                   common/libcommon.a(cmd_mem.o)
__u_boot_cmd_nand                                 common/libcommon.a(cmd_nand.o)
__u_boot_cmd_nboot                                common/libcommon.a(cmd_nand.o)
__u_boot_cmd_nm                                   common/libcommon.a(cmd_mem.o)
__u_boot_cmd_power                                common/libcommon.a(cmd_boot.o)
__u_boot_cmd_printenv                             common/libcommon.a(cmd_nvedit.o)
__u_boot_cmd_question_mark                        common/libcommon.a(cmd_help.o)
__u_boot_cmd_reset                                common/libcommon.a(cmd_boot.o)
__u_boot_cmd_run                                  common/libcommon.a(cmd_nvedit.o)
__u_boot_cmd_saveenv                              common/libcommon.a(cmd_nvedit.o)
__u_boot_cmd_setenv                               common/libcommon.a(cmd_nvedit.o)
__u_boot_cmd_sf                                   common/libcommon.a(cmd_sf.o)
__u_boot_cmd_showvar                              common/libcommon.a(hush.o)
__u_boot_cmd_sleep                                common/libcommon.a(cmd_misc.o)
__u_boot_cmd_source                               common/libcommon.a(cmd_source.o)
__u_boot_cmd_start                                common/libcommon.a(command.o)
                                                  common/libcommon.a(cmd_help.o)
__u_boot_cmd_test                                 common/libcommon.a(cmd_test.o)
__u_boot_cmd_true                                 common/libcommon.a(cmd_test.o)
__u_boot_cmd_ubi                                  common/libcommon.a(cmd_ubi.o)
__u_boot_cmd_ubifsload                            common/libcommon.a(cmd_ubifs.o)
__u_boot_cmd_ubifsls                              common/libcommon.a(cmd_ubifs.o)
__u_boot_cmd_ubifsmount                           common/libcommon.a(cmd_ubifs.o)
__u_boot_cmd_usb                                  common/libcommon.a(cmd_usb.o)
__u_boot_cmd_usbboot                              common/libcommon.a(cmd_usb.o)
__u_boot_cmd_version                              common/libcommon.a(cmd_version.o)
__udelay                                          arch/arm/cpu/aml_meson/m1/libm1.a(timer.o)
                                                  lib/libgeneric.a(time.o)
__udivdi3                                         /opt/toolchains/arm-mlogic/bin/../lib/gcc/arm-none-eabi/4.4.1/libgcc.a(_udivdi3.o)
                                                  /opt/toolchains/arm-mlogic/bin/../lib/gcc/arm-none-eabi/4.4.1/libgcc.a(bpabi.o)
__udivsi3                                         /opt/toolchains/arm-mlogic/bin/../lib/gcc/arm-none-eabi/4.4.1/libgcc.a(_udivsi3.o)
__yellow_LED_off                                  arch/arm/lib/libarm.a(board.o)
__yellow_LED_on                                   arch/arm/lib/libarm.a(board.o)
_armboot_start                                    arch/arm/cpu/aml_meson/start.o
                                                  arch/arm/lib/libarm.a(board.o)
_bss_end                                          arch/arm/cpu/aml_meson/start.o
_bss_start                                        arch/arm/cpu/aml_meson/start.o
                                                  arch/arm/lib/libarm.a(board.o)
_clean_dcache                                     arch/arm/lib/libarm.a(cache_v7.o)
                                                  arch/arm/lib/libarm.a(cache.o)
_clean_dcache_addr                                arch/arm/lib/libarm.a(cache_v7.o)
                                                  arch/arm/lib/libarm.a(cache.o)
_clean_invd_dcache                                arch/arm/lib/libarm.a(cache_v7.o)
                                                  arch/arm/lib/libarm.a(cache.o)
_clean_invd_dcache_addr                           arch/arm/lib/libarm.a(cache_v7.o)
                                                  arch/arm/lib/libarm.a(cache.o)
_ctype                                            lib/libgeneric.a(ctype.o)
                                                  fs/ubifs/libubifs.a(super.o)
                                                  lib/libgeneric.a(vsprintf.o)
                                                  lib/libgeneric.a(display_options.o)
                                                  common/libcommon.a(usb.o)
                                                  common/libcommon.a(hush.o)
                                                  common/libcommon.a(cmd_mtdparts.o)
_do_help                                          common/libcommon.a(command.o)
                                                  common/libcommon.a(cmd_help.o)
_do_setenv                                        common/libcommon.a(cmd_nvedit.o)
_end                                              arch/arm/cpu/aml_meson/start.o
_end_vect                                         arch/arm/cpu/aml_meson/start.o
_invalidate_dcache                                arch/arm/lib/libarm.a(cache_v7.o)
                                                  arch/arm/lib/libarm.a(cache.o)
_invalidate_dcache_addr                           arch/arm/lib/libarm.a(cache_v7.o)
                                                  arch/arm/lib/libarm.a(cache.o)
_invalidate_dcache_addr2                          arch/arm/lib/libarm.a(cache_v7.o)
_invalidate_icache                                arch/arm/lib/libarm.a(cache_v7.o)
                                                  arch/arm/lib/libarm.a(cache.o)
_start                                            arch/arm/cpu/aml_meson/start.o
ac_connected                                      board/amlogic/8726m_mid_refb04/lib8726m_mid_refb04.a(battery_charging.o)
                                                  board/amlogic/8726m_mid_refb04/lib8726m_mid_refb04.a(8726m_mid_refb04.o)
adc_key_list                                      board/amlogic/8726m_mid_refb04/lib8726m_mid_refb04.a(8726m_mid_refb04.o)
add_mtd_device                                    drivers/mtd/libmtd.a(mtdcore.o)
                                                  drivers/mtd/libmtd.a(mtdpart.o)
                                                  drivers/mtd/nand/libnand.a(aml_nand.o)
add_mtd_partitions                                drivers/mtd/libmtd.a(mtdpart.o)
                                                  common/libcommon.a(cmd_ubi.o)
adler32                                           lib/libgeneric.a(zlib.o)
aml_i2c_ddata                                     drivers/i2c/libi2c.a(aml_i2c.o)
aml_i2c_init                                      drivers/i2c/libi2c.a(aml_i2c.o)
                                                  arch/arm/lib/libarm.a(board.o)
aml_i2c_plat                                      board/amlogic/8726m_mid_refb04/lib8726m_mid_refb04.a(8726m_mid_refb04.o)
                                                  drivers/i2c/libi2c.a(aml_i2c.o)
aml_i2c_reg_start                                 drivers/i2c/libi2c.a(aml_i2c.o)
aml_i2c_xfer                                      drivers/i2c/libi2c.a(aml_i2c.o)
aml_nand_flash_ids                                drivers/mtd/nand/libnand.a(aml_nand.o)
aml_nand_init                                     drivers/mtd/nand/libnand.a(aml_nand.o)
                                                  drivers/mtd/nand/libnand.a(m1_nand.o)
aml_nand_mid_device                               board/amlogic/8726m_mid_refb04/lib8726m_mid_refb04.a(8726m_mid_refb04.o)
                                                  drivers/mtd/nand/libnand.a(m1_nand.o)
aml_nand_scan                                     drivers/mtd/nand/libnand.a(aml_nand.o)
aml_rtc_init                                      drivers/rtc/librtc.a(aml_rtc.o)
                                                  arch/arm/lib/libarm.a(board.o)
aml_rtc_read_time                                 drivers/rtc/librtc.a(aml_rtc.o)
aml_rtc_write_time                                drivers/rtc/librtc.a(aml_rtc.o)
aml_sd_cfg_swth                                   drivers/mmc/libmmc.a(aml_sd_mmc.o)
                                                  board/amlogic/8726m_mid_refb04/lib8726m_mid_refb04.a(8726m_mid_refb04.o)
aml_sd_init                                       drivers/mmc/libmmc.a(aml_sd_mmc.o)
                                                  board/amlogic/8726m_mid_refb04/lib8726m_mid_refb04.a(8726m_mid_refb04.o)
aml_sd_send_cmd                                   drivers/mmc/libmmc.a(aml_sd_mmc.o)
                                                  board/amlogic/8726m_mid_refb04/lib8726m_mid_refb04.a(8726m_mid_refb04.o)
arch_kgdb_remove_sw_break                         arch/arm/lib/libarm.a(kgdb.o)
                                                  common/libcommon.a(kgdb.o)
arch_kgdb_set_sw_break                            arch/arm/lib/libarm.a(kgdb.o)
                                                  common/libcommon.a(kgdb.o)
arch_preboot_os                                   common/libcommon.a(cmd_bootm.o)
args_buf                                          arch/arm/lib/libarm.a(bootm.o)
autoscript                                        common/libcommon.a(cmd_autoscript.o)
bad_mode                                          arch/arm/lib/libarm.a(interrupts.o)
bcopy                                             lib/libgeneric.a(string.o)
binary_test                                       common/libcommon.a(cmd_itest.o)
blue_LED_off                                      arch/arm/lib/libarm.a(board.o)
blue_LED_on                                       arch/arm/lib/libarm.a(board.o)
board_init                                        board/amlogic/8726m_mid_refb04/lib8726m_mid_refb04.a(8726m_mid_refb04.o)
                                                  arch/arm/lib/libarm.a(board.o)
board_mmc_init                                    board/amlogic/8726m_mid_refb04/lib8726m_mid_refb04.a(8726m_mid_refb04.o)
                                                  drivers/mmc/libmmc.a(mmc.o)
board_usb_init                                    arch/arm/cpu/aml_meson/m1/libm1.a(usb.o)
board_usb_start                                   arch/arm/cpu/aml_meson/m1/libm1.a(usb.o)
                                                  drivers/usb/host/libusb_host.a(dwc_otg_hcd.o)
board_usb_stop                                    arch/arm/cpu/aml_meson/m1/libm1.a(usb.o)
                                                  drivers/usb/host/libusb_host.a(dwc_otg_hcd.o)
board_ver                                         board/amlogic/8726m_mid_refb04/lib8726m_mid_refb04.a(powerkey.o)
boot_autoscript                                   board/amlogic/8726m_mid_refb04/lib8726m_mid_refb04.a(8726m_mid_refb04.o)
boot_get_ramdisk                                  common/libcommon.a(image.o)
                                                  common/libcommon.a(cmd_bootm.o)
breakpoint                                        common/libcommon.a(kgdb.o)
c_dbg_lvl                                         drivers/rtc/librtc.a(aml_rtc.o)
cache_init                                        arch/arm/lib/libarm.a(cache_init.o)
                                                  arch/arm/cpu/aml_meson/start.o
calloc                                            common/libcommon.a(dlmalloc.o)
                                                  drivers/mtd/ubi/libubi.a(scan.o)
                                                  drivers/mtd/ubi/libubi.a(wl.o)
                                                  drivers/mtd/ubi/libubi.a(eba.o)
                                                  drivers/mtd/ubi/libubi.a(vmt.o)
                                                  drivers/mtd/ubi/libubi.a(vtbl.o)
                                                  drivers/mtd/ubi/libubi.a(build.o)
                                                  drivers/mtd/nand/libnand.a(nand_util.o)
                                                  drivers/mtd/libmtd.a(mtdpart.o)
                                                  fs/ubifs/libubifs.a(replay.o)
                                                  fs/ubifs/libubifs.a(recovery.o)
                                                  fs/ubifs/libubifs.a(orphan.o)
                                                  fs/ubifs/libubifs.a(tnc_misc.o)
                                                  fs/ubifs/libubifs.a(tnc.o)
                                                  fs/ubifs/libubifs.a(scan.o)
                                                  fs/ubifs/libubifs.a(lpt.o)
                                                  fs/ubifs/libubifs.a(master.o)
                                                  fs/ubifs/libubifs.a(super.o)
                                                  fs/ubifs/libubifs.a(ubifs.o)
                                                  common/libcommon.a(stdio.o)
                                                  drivers/mtd/nand/libnand.a(nand_bbt.o)
                                                  drivers/mtd/nand/libnand.a(aml_nand.o)
                                                  drivers/mtd/nand/libnand.a(m1_nand.o)
canvas_config                                     arch/arm/cpu/aml_meson/m1/libm1.a(canvas.o)
                                                  arch/arm/cpu/aml_meson/m1/libm1.a(osd_hw.o)
canvas_copy                                       arch/arm/cpu/aml_meson/m1/libm1.a(canvas.o)
canvas_get_addr                                   arch/arm/cpu/aml_meson/m1/libm1.a(canvas.o)
canvas_read                                       arch/arm/cpu/aml_meson/m1/libm1.a(canvas.o)
canvas_update_addr                                arch/arm/cpu/aml_meson/m1/libm1.a(canvas.o)
cfree                                             common/libcommon.a(dlmalloc.o)
chk1                                              common/libcommon.a(cmd_load.o)
cleanup_before_linux                              arch/arm/cpu/aml_meson/libaml_meson.a(cpu.o)
                                                  arch/arm/lib/libarm.a(bootm.o)
clear_ctrlc                                       common/libcommon.a(console.o)
                                                  common/libcommon.a(main.o)
                                                  common/libcommon.a(hush.o)
clear_mio_mux                                     arch/arm/cpu/aml_meson/m1/libm1.a(pinmux.o)
                                                  board/amlogic/8726m_mid_refb04/lib8726m_mid_refb04.a(powerkey.o)
                                                  board/amlogic/8726m_mid_refb04/lib8726m_mid_refb04.a(lcd.o)
clearall_pinmux                                   arch/arm/cpu/aml_meson/m1/libm1.a(pinmux.o)
clk_util_clk_msr                                  arch/arm/cpu/aml_meson/m1/libm1.a(clock.o)
cmd_auto_complete                                 common/libcommon.a(command.o)
                                                  common/libcommon.a(main.o)
cmd_get_data_size                                 common/libcommon.a(command.o)
                                                  common/libcommon.a(cmd_mem.o)
                                                  common/libcommon.a(cmd_itest.o)
cmd_usage                                         common/libcommon.a(command.o)
                                                  common/libcommon.a(main.o)
                                                  common/libcommon.a(lcd_aml.o)
                                                  common/libcommon.a(hush.o)
                                                  common/libcommon.a(cmd_usb.o)
                                                  common/libcommon.a(cmd_ubifs.o)
                                                  common/libcommon.a(cmd_ubi.o)
                                                  common/libcommon.a(cmd_sf.o)
                                                  common/libcommon.a(cmd_nvedit.o)
                                                  common/libcommon.a(cmd_nand.o)
                                                  common/libcommon.a(cmd_mtdparts.o)
                                                  common/libcommon.a(cmd_misc.o)
                                                  common/libcommon.a(cmd_mem.o)
                                                  common/libcommon.a(cmd_itest.o)
                                                  common/libcommon.a(cmd_ext2.o)
                                                  common/libcommon.a(cmd_bootm.o)
                                                  common/libcommon.a(cmd_boot.o)
                                                  common/libcommon.a(cmd_bmp.o)
coloured_LED_init                                 arch/arm/lib/libarm.a(board.o)
console_assign                                    common/libcommon.a(console.o)
                                                  common/libcommon.a(cmd_nvedit.o)
console_buffer                                    common/libcommon.a(main.o)
                                                  common/libcommon.a(hush.o)
                                                  common/libcommon.a(cmd_mem.o)
console_init_f                                    common/libcommon.a(console.o)
                                                  arch/arm/lib/libarm.a(board.o)
console_init_r                                    common/libcommon.a(console.o)
                                                  arch/arm/lib/libarm.a(board.o)
cp15_dcache_disable                               arch/arm/lib/libarm.a(cache-cp15.o)
                                                  arch/arm/lib/libarm.a(cache.o)
cp15_dcache_enable                                arch/arm/lib/libarm.a(cache-cp15.o)
                                                  arch/arm/lib/libarm.a(cache.o)
cp15_dcache_status                                arch/arm/lib/libarm.a(cache-cp15.o)
                                                  arch/arm/lib/libarm.a(cache.o)
cp15_icache_disable                               arch/arm/lib/libarm.a(cache-cp15.o)
                                                  arch/arm/lib/libarm.a(cache.o)
cp15_icache_enable                                arch/arm/lib/libarm.a(cache-cp15.o)
                                                  arch/arm/lib/libarm.a(cache.o)
cp15_icache_status                                arch/arm/lib/libarm.a(cache-cp15.o)
cpu_mmc_init                                      drivers/mmc/libmmc.a(mmc.o)
cpu_sdio_get                                      arch/arm/cpu/aml_meson/m1/libm1.a(sdio.o)
                                                  board/amlogic/8726m_mid_refb04/lib8726m_mid_refb04.a(8726m_mid_refb04.o)
cpu_sdio_init                                     arch/arm/cpu/aml_meson/m1/libm1.a(sdio.o)
                                                  drivers/mmc/libmmc.a(aml_sd_mmc.o)
                                                  common/libcommon.a(cmd_mmc.o)
crc16                                             fs/ubifs/libubifs.a(crc16.o)
                                                  fs/ubifs/libubifs.a(lpt.o)
crc16_table                                       fs/ubifs/libubifs.a(crc16.o)
crc32                                             lib/libgeneric.a(crc32.o)
                                                  lib/libgeneric.a(zlib.o)
                                                  common/libcommon.a(image.o)
                                                  common/libcommon.a(env_nand.o)
                                                  common/libcommon.a(env_common.o)
                                                  common/libcommon.a(cmd_mem.o)
crc32_le                                          drivers/mtd/ubi/libubi.a(crc32.o)
                                                  drivers/mtd/ubi/libubi.a(scan.o)
                                                  drivers/mtd/ubi/libubi.a(io.o)
                                                  drivers/mtd/ubi/libubi.a(eba.o)
                                                  drivers/mtd/ubi/libubi.a(vtbl.o)
                                                  fs/ubifs/libubifs.a(io.o)
                                                  fs/ubifs/libubifs.a(tnc.o)
crc32_no_comp                                     lib/libgeneric.a(crc32.o)
crc32_wd                                          lib/libgeneric.a(crc32.o)
                                                  common/libcommon.a(image.o)
ctrlc                                             common/libcommon.a(console.o)
                                                  lib/libgeneric.a(display_options.o)
                                                  common/libcommon.a(hush.o)
                                                  common/libcommon.a(command.o)
                                                  common/libcommon.a(cmd_nvedit.o)
                                                  common/libcommon.a(cmd_misc.o)
                                                  common/libcommon.a(cmd_mem.o)
                                                  common/libcommon.a(cmd_load.o)
current_mtd_dev                                   common/libcommon.a(cmd_mtdparts.o)
current_mtd_partnum                               common/libcommon.a(cmd_mtdparts.o)
cyg_crc16                                         lib/libgeneric.a(crc16.o)
                                                  common/libcommon.a(xyzModem.o)
dbg                                               common/libcommon.a(console.o)
dcache_clean                                      arch/arm/lib/libarm.a(cache.o)
dcache_clean_line                                 arch/arm/lib/libarm.a(cache.o)
dcache_clean_range                                arch/arm/lib/libarm.a(cache.o)
                                                  drivers/mmc/libmmc.a(aml_sd_mmc.o)
dcache_disable                                    arch/arm/lib/libarm.a(cache.o)
                                                  arch/arm/cpu/aml_meson/libaml_meson.a(cpu.o)
                                                  common/libcommon.a(kgdb_stubs.o)
dcache_enable                                     arch/arm/lib/libarm.a(cache.o)
                                                  common/libcommon.a(kgdb_stubs.o)
dcache_flush                                      arch/arm/lib/libarm.a(cache.o)
                                                  drivers/usb/host/libusb_host.a(dwc_otg_hcd.o)
                                                  drivers/mmc/libmmc.a(aml_sd_mmc.o)
                                                  common/libcommon.a(cmd_sf.o)
dcache_flush_line                                 arch/arm/lib/libarm.a(cache.o)
dcache_flush_range                                arch/arm/lib/libarm.a(cache.o)
                                                  drivers/mtd/nand/libnand.a(aml_nand.o)
dcache_inv_line                                   arch/arm/lib/libarm.a(cache.o)
dcache_invalid                                    arch/arm/lib/libarm.a(cache.o)
dcache_invalid_range                              arch/arm/lib/libarm.a(cache.o)
                                                  drivers/mmc/libmmc.a(aml_sd_mmc.o)
                                                  drivers/mtd/nand/libnand.a(aml_nand.o)
dcache_status                                     arch/arm/lib/libarm.a(cache.o)
                                                  common/libcommon.a(kgdb_stubs.o)
                                                  arch/arm/lib/libarm.a(board.o)
debug_image                                       board/amlogic/8726m_mid_refb04/lib8726m_mid_refb04.a(debug.o)
                                                  board/amlogic/8726m_mid_refb04/lib8726m_mid_refb04.a(8726m_mid_refb04.o)
debugger_exception_handler                        common/libcommon.a(kgdb_stubs.o)
                                                  common/libcommon.a(kgdb.o)
                                                  arch/arm/lib/libarm.a(interrupts.o)
default_environment                               common/libcommon.a(env_common.o)
                                                  common/libcommon.a(env_nand.o)
del_mtd_device                                    drivers/mtd/libmtd.a(mtdcore.o)
                                                  drivers/mtd/libmtd.a(mtdpart.o)
del_mtd_partitions                                drivers/mtd/libmtd.a(mtdpart.o)
                                                  common/libcommon.a(cmd_ubi.o)
                                                  drivers/mtd/nand/libnand.a(nand_base.o)
destroy_old_idx                                   fs/ubifs/libubifs.a(tnc.o)
determinate_load                                  board/amlogic/8726m_mid_refb04/lib8726m_mid_refb04.a(debug.o)
dev_print                                         disk/libdisk.a(part.o)
                                                  fs/fat/libfat.a(fat.o)
                                                  common/libcommon.a(usb_storage.o)
                                                  common/libcommon.a(cmd_usb.o)
device_find                                       common/libcommon.a(cmd_mtdparts.o)
devices                                           common/libcommon.a(cmd_mtdparts.o)
disable_ctrlc                                     common/libcommon.a(console.o)
disable_interrupts                                arch/arm/lib/libarm.a(interrupts.o)
                                                  arch/arm/cpu/aml_meson/libaml_meson.a(cpu.o)
                                                  arch/arm/lib/libarm.a(reset.o)
                                                  common/libcommon.a(cmd_bootm.o)
disk_read                                         fs/fat/libfat.a(fat.o)
display_messge                                    board/amlogic/8726m_mid_refb04/lib8726m_mid_refb04.a(8726m_mid_refb04.o)
                                                  board/amlogic/8726m_mid_refb04/lib8726m_mid_refb04.a(debug.o)
                                                  board/amlogic/8726m_mid_refb04/lib8726m_mid_refb04.a(upgrade.o)
display_options                                   lib/libgeneric.a(display_options.o)
do_autoscript                                     common/libcommon.a(cmd_autoscript.o)
do_bdinfo                                         common/libcommon.a(cmd_bdinfo.o)
do_bootd                                          common/libcommon.a(cmd_bootm.o)
                                                  common/libcommon.a(main.o)
                                                  common/libcommon.a(hush.o)
do_bootm                                          common/libcommon.a(cmd_bootm.o)
                                                  common/libcommon.a(cmd_usb.o)
                                                  common/libcommon.a(cmd_nand.o)
do_bootm_linux                                    arch/arm/lib/libarm.a(bootm.o)
                                                  common/libcommon.a(cmd_bootm.o)
do_bootm_subcommand                               common/libcommon.a(cmd_bootm.o)
do_chpart                                         common/libcommon.a(cmd_mtdparts.o)
do_coninfo                                        common/libcommon.a(cmd_console.o)
do_data_abort                                     arch/arm/lib/libarm.a(interrupts.o)
                                                  arch/arm/cpu/aml_meson/start.o
do_defenv                                         common/libcommon.a(cmd_nvedit.o)
do_echo                                           common/libcommon.a(cmd_echo.o)
do_editenv                                        common/libcommon.a(cmd_nvedit.o)
do_exit                                           common/libcommon.a(cmd_exit.o)
do_ext2load                                       common/libcommon.a(cmd_ext2.o)
do_ext2ls                                         common/libcommon.a(cmd_ext2.o)
do_false                                          common/libcommon.a(cmd_test.o)
do_fat_exist                                      common/libcommon.a(cmd_fat.o)
do_fat_fsinfo                                     common/libcommon.a(cmd_fat.o)
do_fat_fsload                                     common/libcommon.a(cmd_fat.o)
do_fat_ls                                         common/libcommon.a(cmd_fat.o)
do_fat_read                                       fs/fat/libfat.a(fat.o)
                                                  common/libcommon.a(cmd_fat.o)
do_fat_read_block                                 fs/fat/libfat.a(fat.o)
do_fiq                                            arch/arm/lib/libarm.a(interrupts.o)
                                                  arch/arm/cpu/aml_meson/start.o
do_go                                             common/libcommon.a(cmd_boot.o)
do_go_exec                                        common/libcommon.a(cmd_boot.o)
do_help                                           common/libcommon.a(cmd_help.o)
do_imgextract                                     common/libcommon.a(cmd_ximg.o)
do_irq                                            arch/arm/lib/libarm.a(interrupts.o)
                                                  arch/arm/cpu/aml_meson/start.o
do_itest                                          common/libcommon.a(cmd_itest.o)
do_kgdb                                           common/libcommon.a(kgdb.o)
do_load_serial                                    common/libcommon.a(cmd_load.o)
do_load_serial_bin                                common/libcommon.a(cmd_load.o)
do_loadenv                                        common/libcommon.a(cmd_nvedit.o)
do_mem_base                                       common/libcommon.a(cmd_mem.o)
do_mem_cmp                                        common/libcommon.a(cmd_mem.o)
do_mem_cp                                         common/libcommon.a(cmd_mem.o)
do_mem_crc                                        common/libcommon.a(cmd_mem.o)
do_mem_loop                                       common/libcommon.a(cmd_mem.o)
do_mem_md                                         common/libcommon.a(cmd_mem.o)
do_mem_mm                                         common/libcommon.a(cmd_mem.o)
do_mem_mtest                                      common/libcommon.a(cmd_mem.o)
do_mem_mw                                         common/libcommon.a(cmd_mem.o)
do_mem_nm                                         common/libcommon.a(cmd_mem.o)
do_mmcinfo                                        common/libcommon.a(cmd_mmc.o)
do_mmcops                                         common/libcommon.a(cmd_mmc.o)
do_mmcselect                                      common/libcommon.a(cmd_mmc.o)
do_mtdparts                                       common/libcommon.a(cmd_mtdparts.o)
do_nand                                           common/libcommon.a(cmd_nand.o)
do_nandboot                                       common/libcommon.a(cmd_nand.o)
do_not_used                                       arch/arm/lib/libarm.a(interrupts.o)
                                                  arch/arm/cpu/aml_meson/start.o
do_prefetch_abort                                 arch/arm/lib/libarm.a(interrupts.o)
                                                  arch/arm/cpu/aml_meson/start.o
do_printenv                                       common/libcommon.a(cmd_nvedit.o)
do_reset                                          arch/arm/lib/libarm.a(reset.o)
                                                  lib/libgeneric.a(vsprintf.o)
                                                  common/libcommon.a(exports.o)
                                                  common/libcommon.a(cmd_bootm.o)
                                                  common/libcommon.a(cmd_boot.o)
do_run                                            common/libcommon.a(main.o)
                                                  common/libcommon.a(cmd_nvedit.o)
do_saveenv                                        common/libcommon.a(cmd_nvedit.o)
do_setenv                                         common/libcommon.a(cmd_nvedit.o)
do_showvar                                        common/libcommon.a(hush.o)
do_sleep                                          common/libcommon.a(cmd_misc.o)
do_software_interrupt                             arch/arm/lib/libarm.a(interrupts.o)
                                                  arch/arm/cpu/aml_meson/start.o
do_source                                         common/libcommon.a(cmd_source.o)
do_test                                           common/libcommon.a(cmd_test.o)
do_true                                           common/libcommon.a(cmd_test.o)
do_ubifs_load                                     common/libcommon.a(cmd_ubifs.o)
do_ubifs_ls                                       common/libcommon.a(cmd_ubifs.o)
do_ubifs_mount                                    common/libcommon.a(cmd_ubifs.o)
do_undefined_instruction                          arch/arm/lib/libarm.a(interrupts.o)
                                                  arch/arm/cpu/aml_meson/start.o
do_usb                                            common/libcommon.a(cmd_usb.o)
do_usbboot                                        common/libcommon.a(cmd_usb.o)
do_version                                        common/libcommon.a(cmd_version.o)
dp_last_addr                                      common/libcommon.a(cmd_mem.o)
dp_last_length                                    common/libcommon.a(cmd_mem.o)
dp_last_size                                      common/libcommon.a(cmd_mem.o)
dram_init                                         arch/arm/cpu/aml_meson/m1/libm1.a(board.o)
                                                  arch/arm/lib/libarm.a(board.o)
drv_lcd_init                                      common/libcommon.a(lcd_aml.o)
dump_sdio_reg                                     drivers/mmc/libmmc.a(aml_sd_mmc.o)
dwc_otg_core_host_init                            drivers/usb/host/libusb_host.a(dwc_otg_hcd.o)
dwc_otg_core_init                                 drivers/usb/host/libusb_host.a(dwc_otg_hcd.o)
dwc_otg_core_reset                                drivers/usb/host/libusb_host.a(dwc_otg_hcd.o)
dwc_otg_disable_host_interrupts                   drivers/usb/host/libusb_host.a(dwc_otg_hcd.o)
dwc_otg_enable_global_interrupts                  drivers/usb/host/libusb_host.a(dwc_otg_hcd.o)
dwc_otg_enable_host_interrupts                    drivers/usb/host/libusb_host.a(dwc_otg_hcd.o)
dwc_otg_flush_rx_fifo                             drivers/usb/host/libusb_host.a(dwc_otg_hcd.o)
dwc_otg_flush_tx_fifo                             drivers/usb/host/libusb_host.a(dwc_otg_hcd.o)
dwc_otg_hc_cleanup                                drivers/usb/host/libusb_host.a(dwc_otg_hcd.o)
dwc_otg_hcd_stop                                  drivers/usb/host/libusb_host.a(dwc_otg_hcd.o)
dwc_udelay                                        drivers/usb/host/libusb_host.a(dwc_otg_hcd.o)
enable_interrupts                                 arch/arm/lib/libarm.a(interrupts.o)
                                                  common/libcommon.a(cmd_bootm.o)
                                                  arch/arm/lib/libarm.a(board.o)
env_complete                                      common/libcommon.a(env_common.o)
                                                  common/libcommon.a(command.o)
env_crc_update                                    common/libcommon.a(env_common.o)
                                                  common/libcommon.a(cmd_nvedit.o)
env_get_addr                                      common/libcommon.a(env_common.o)
                                                  common/libcommon.a(cmd_nvedit.o)
env_get_char                                      common/libcommon.a(env_common.o)
                                                  common/libcommon.a(cmd_nvedit.o)
env_get_char_memory                               common/libcommon.a(env_common.o)
env_get_char_spec                                 common/libcommon.a(env_nand.o)
                                                  common/libcommon.a(env_common.o)
env_import                                        common/libcommon.a(env_common.o)
env_init                                          common/libcommon.a(env_nand.o)
                                                  arch/arm/lib/libarm.a(board.o)
env_name_spec                                     common/libcommon.a(env_nand.o)
                                                  common/libcommon.a(cmd_nvedit.o)
env_ptr                                           common/libcommon.a(env_nand.o)
                                                  common/libcommon.a(env_common.o)
env_relocate                                      common/libcommon.a(env_common.o)
                                                  arch/arm/lib/libarm.a(board.o)
env_relocate_spec                                 common/libcommon.a(env_nand.o)
                                                  common/libcommon.a(env_common.o)
envmatch                                          common/libcommon.a(cmd_nvedit.o)
eth_clearall_pinmux                               arch/arm/cpu/aml_meson/m1/libm1.a(pinmux.o)
eth_set_pinmux                                    arch/arm/cpu/aml_meson/m1/libm1.a(pinmux.o)
ext2fs_close                                      fs/ext2/libext2fs.a(ext2fs.o)
                                                  common/libcommon.a(cmd_ext2.o)
ext2fs_devread                                    fs/ext2/libext2fs.a(dev.o)
                                                  fs/ext2/libext2fs.a(ext2fs.o)
ext2fs_file                                       fs/ext2/libext2fs.a(ext2fs.o)
ext2fs_find_file                                  fs/ext2/libext2fs.a(ext2fs.o)
ext2fs_find_file1                                 fs/ext2/libext2fs.a(ext2fs.o)
ext2fs_free_node                                  fs/ext2/libext2fs.a(ext2fs.o)
ext2fs_ls                                         fs/ext2/libext2fs.a(ext2fs.o)
                                                  common/libcommon.a(cmd_ext2.o)
ext2fs_mount                                      fs/ext2/libext2fs.a(ext2fs.o)
                                                  common/libcommon.a(cmd_ext2.o)
ext2fs_open                                       fs/ext2/libext2fs.a(ext2fs.o)
                                                  common/libcommon.a(cmd_ext2.o)
ext2fs_read                                       fs/ext2/libext2fs.a(ext2fs.o)
                                                  common/libcommon.a(cmd_ext2.o)
ext2fs_read_file                                  fs/ext2/libext2fs.a(ext2fs.o)
ext2fs_root                                       fs/ext2/libext2fs.a(ext2fs.o)
ext2fs_set_blk_dev                                fs/ext2/libext2fs.a(dev.o)
                                                  common/libcommon.a(cmd_ext2.o)
fat_register_device                               fs/fat/libfat.a(fat.o)
                                                  common/libcommon.a(cmd_fat.o)
fbase                                             drivers/mmc/libmmc.a(mmc.o)
fgetc                                             common/libcommon.a(console.o)
file_fat_detectfs                                 fs/fat/libfat.a(fat.o)
                                                  common/libcommon.a(cmd_fat.o)
file_fat_ls                                       fs/fat/libfat.a(fat.o)
                                                  common/libcommon.a(cmd_fat.o)
file_fat_read                                     fs/fat/libfat.a(fat.o)
                                                  common/libcommon.a(cmd_fat.o)
find_cmd                                          common/libcommon.a(command.o)
                                                  common/libcommon.a(main.o)
                                                  common/libcommon.a(hush.o)
find_cmd_tbl                                      common/libcommon.a(command.o)
                                                  common/libcommon.a(lcd_aml.o)
                                                  common/libcommon.a(cmd_bootm.o)
                                                  common/libcommon.a(cmd_bmp.o)
find_dev_and_part                                 common/libcommon.a(cmd_mtdparts.o)
                                                  common/libcommon.a(cmd_ubi.o)
                                                  common/libcommon.a(cmd_nand.o)
find_mmc_device                                   drivers/mmc/libmmc.a(mmc.o)
                                                  common/libcommon.a(cmd_mmc.o)
flush_cache                                       arch/arm/lib/libarm.a(cache.o)
                                                  common/libcommon.a(devfont.o)
                                                  common/libcommon.a(lcd_aml.o)
                                                  common/libcommon.a(kgdb_stubs.o)
                                                  common/libcommon.a(cmd_usb.o)
                                                  common/libcommon.a(cmd_mmc.o)
                                                  common/libcommon.a(cmd_load.o)
font_arrays                                       common/libcommon.a(devfont.o)
font_nums                                         common/libcommon.a(devfont.o)
fprintf                                           common/libcommon.a(console.o)
fputc                                             common/libcommon.a(console.o)
fputs                                             common/libcommon.a(console.o)
free                                              common/libcommon.a(dlmalloc.o)
                                                  drivers/usb/host/libusb_host.a(dwc_otg_hcd.o)
                                                  drivers/spi/libspi.a(amlogic_spi_a.o)
                                                  drivers/mtd/spi/libspi_flash.a(spi_flash_aml.o)
                                                  drivers/mtd/ubi/libubi.a(misc.o)
                                                  drivers/mtd/ubi/libubi.a(scan.o)
                                                  drivers/mtd/ubi/libubi.a(wl.o)
                                                  drivers/mtd/ubi/libubi.a(eba.o)
                                                  drivers/mtd/ubi/libubi.a(kapi.o)
                                                  drivers/mtd/ubi/libubi.a(upd.o)
                                                  drivers/mtd/ubi/libubi.a(vmt.o)
                                                  drivers/mtd/ubi/libubi.a(vtbl.o)
                                                  drivers/mtd/ubi/libubi.a(build.o)
                                                  drivers/mtd/nand/libnand.a(nand_util.o)
                                                  drivers/mtd/libmtd.a(mtdpart.o)
                                                  fs/ubifs/libubifs.a(replay.o)
                                                  fs/ubifs/libubifs.a(recovery.o)
                                                  fs/ubifs/libubifs.a(orphan.o)
                                                  fs/ubifs/libubifs.a(tnc_misc.o)
                                                  fs/ubifs/libubifs.a(tnc.o)
                                                  fs/ubifs/libubifs.a(scan.o)
                                                  fs/ubifs/libubifs.a(lpt_commit.o)
                                                  fs/ubifs/libubifs.a(lpt.o)
                                                  fs/ubifs/libubifs.a(sb.o)
                                                  fs/ubifs/libubifs.a(super.o)
                                                  fs/ubifs/libubifs.a(ubifs.o)
                                                  fs/ext2/libext2fs.a(ext2fs.o)
                                                  arch/arm/cpu/aml_meson/m1/libm1.a(tcon.o)
                                                  lib/lzma/liblzma.a(LzmaTools.o)
                                                  lib/libgeneric.a(zlib.o)
                                                  lib/libgeneric.a(gunzip.o)
                                                  common/libcommon.a(hush.o)
                                                  common/libcommon.a(exports.o)
                                                  common/libcommon.a(cmd_ubi.o)
                                                  common/libcommon.a(cmd_source.o)
                                                  common/libcommon.a(cmd_nand.o)
                                                  common/libcommon.a(cmd_mtdparts.o)
                                                  common/libcommon.a(cmd_bmp.o)
                                                  common/libcommon.a(cmd_autoscript.o)
                                                  drivers/mtd/nand/libnand.a(nand_bbt.o)
                                                  drivers/mtd/nand/libnand.a(nand_base.o)
                                                  drivers/mtd/nand/libnand.a(aml_nand.o)
                                                  drivers/mtd/nand/libnand.a(m1_nand.o)
ftstc                                             common/libcommon.a(console.o)
g_engery_table                                    board/amlogic/8726m_mid_refb04/lib8726m_mid_refb04.a(battery_charging.o)
g_voltage_table                                   board/amlogic/8726m_mid_refb04/lib8726m_mid_refb04.a(battery_charging.o)
genimg_get_arch_id                                common/libcommon.a(image.o)
genimg_get_arch_name                              common/libcommon.a(image.o)
genimg_get_comp_id                                common/libcommon.a(image.o)
genimg_get_comp_name                              common/libcommon.a(image.o)
genimg_get_format                                 common/libcommon.a(image.o)
                                                  common/libcommon.a(cmd_ximg.o)
                                                  common/libcommon.a(cmd_usb.o)
                                                  common/libcommon.a(cmd_source.o)
                                                  common/libcommon.a(cmd_nand.o)
                                                  common/libcommon.a(cmd_bootm.o)
                                                  common/libcommon.a(cmd_autoscript.o)
genimg_get_image                                  common/libcommon.a(image.o)
                                                  common/libcommon.a(cmd_bootm.o)
genimg_get_os_id                                  common/libcommon.a(image.o)
genimg_get_os_name                                common/libcommon.a(image.o)
                                                  common/libcommon.a(cmd_bootm.o)
genimg_get_type_id                                common/libcommon.a(image.o)
genimg_get_type_name                              common/libcommon.a(image.o)
                                                  common/libcommon.a(cmd_bootm.o)
genimg_has_config                                 common/libcommon.a(image.o)
genimg_print_size                                 common/libcommon.a(image.o)
getDebugChar                                      arch/arm/cpu/aml_meson/m1/libm1.a(serial.o)
                                                  common/libcommon.a(kgdb.o)
get_adc_key                                       board/amlogic/8726m_mid_refb04/lib8726m_mid_refb04.a(8726m_mid_refb04.o)
get_adc_sample                                    board/amlogic/8726m_mid_refb04/lib8726m_mid_refb04.a(saradc.o)
                                                  board/amlogic/8726m_mid_refb04/lib8726m_mid_refb04.a(battery_charging.o)
                                                  board/amlogic/8726m_mid_refb04/lib8726m_mid_refb04.a(8726m_mid_refb04.o)
get_bat_capacity                                  board/amlogic/8726m_mid_refb04/lib8726m_mid_refb04.a(battery_charging.o)
                                                  board/amlogic/8726m_mid_refb04/lib8726m_mid_refb04.a(8726m_mid_refb04.o)
get_board_rev                                     board/amlogic/8726m_mid_refb04/lib8726m_mid_refb04.a(8726m_mid_refb04.o)
                                                  arch/arm/lib/libarm.a(bootm.o)
get_clk81                                         arch/arm/cpu/aml_meson/m1/libm1.a(clock.o)
                                                  drivers/mmc/libmmc.a(aml_sd_mmc.o)
                                                  arch/arm/lib/libarm.a(bootm.o)
                                                  arch/arm/cpu/aml_meson/m1/libm1.a(serial.o)
                                                  drivers/mtd/nand/libnand.a(aml_nand.o)
                                                  drivers/i2c/libi2c.a(aml_i2c.o)
get_cpu_clk                                       arch/arm/cpu/aml_meson/m1/libm1.a(clock.o)
                                                  arch/arm/lib/libarm.a(bootm.o)
get_dentfromdir_block                             fs/fat/libfat.a(fat.o)
get_dev                                           disk/libdisk.a(part.o)
                                                  common/libcommon.a(cmd_fat.o)
                                                  common/libcommon.a(cmd_ext2.o)
get_env_id                                        common/libcommon.a(cmd_nvedit.o)
get_gpio_key                                      board/amlogic/8726m_mid_refb04/lib8726m_mid_refb04.a(8726m_mid_refb04.o)
get_gpio_mode                                     arch/arm/cpu/aml_meson/m1/libm1.a(gpio.o)
get_gpio_val                                      arch/arm/cpu/aml_meson/m1/libm1.a(gpio.o)
                                                  board/amlogic/8726m_mid_refb04/lib8726m_mid_refb04.a(8726m_mid_refb04.o)
get_logo_file                                     board/amlogic/8726m_mid_refb04/lib8726m_mid_refb04.a(upgrade.o)
                                                  board/amlogic/8726m_mid_refb04/lib8726m_mid_refb04.a(8726m_mid_refb04.o)
get_mtd_device                                    drivers/mtd/libmtd.a(mtdcore.o)
                                                  drivers/mtd/ubi/libubi.a(build.o)
get_mtd_device_nm                                 drivers/mtd/libmtd.a(mtdcore.o)
                                                  drivers/mtd/ubi/libubi.a(build.o)
                                                  common/libcommon.a(cmd_ubi.o)
                                                  common/libcommon.a(cmd_nand.o)
                                                  common/libcommon.a(cmd_mtdparts.o)
get_partition_info                                disk/libdisk.a(part.o)
                                                  fs/ext2/libext2fs.a(dev.o)
                                                  fs/fat/libfat.a(fat.o)
                                                  common/libcommon.a(cmd_usb.o)
                                                  common/libcommon.a(cmd_ext2.o)
get_partition_info_dos                            disk/libdisk.a(part_dos.o)
                                                  disk/libdisk.a(part.o)
get_special_key                                   board/amlogic/8726m_mid_refb04/lib8726m_mid_refb04.a(8726m_mid_refb04.o)
get_table_entry_id                                common/libcommon.a(image.o)
get_table_entry_name                              common/libcommon.a(image.o)
get_timer                                         arch/arm/cpu/aml_meson/m1/libm1.a(timer.o)
                                                  drivers/mmc/libmmc.a(aml_sd_mmc.o)
                                                  common/libcommon.a(exports.o)
                                                  common/libcommon.a(cmd_misc.o)
                                                  drivers/mtd/nand/libnand.a(nand_base.o)
get_version                                       common/libcommon.a(exports.o)
get_vfatname_block                                fs/fat/libfat.a(fat.o)
getc                                              common/libcommon.a(console.o)
                                                  drivers/mtd/nand/libnand.a(nand_util.o)
                                                  lib/libgeneric.a(time.o)
                                                  common/libcommon.a(xyzModem.o)
                                                  common/libcommon.a(main.o)
                                                  common/libcommon.a(exports.o)
                                                  common/libcommon.a(cmd_nvedit.o)
                                                  common/libcommon.a(cmd_nand.o)
                                                  common/libcommon.a(cmd_load.o)
getenv                                            common/libcommon.a(cmd_nvedit.o)
                                                  arch/arm/lib/libarm.a(bootm.o)
                                                  board/amlogic/8726m_mid_refb04/lib8726m_mid_refb04.a(debug.o)
                                                  board/amlogic/8726m_mid_refb04/lib8726m_mid_refb04.a(upgrade.o)
                                                  common/libcommon.a(main.o)
                                                  common/libcommon.a(image.o)
                                                  common/libcommon.a(hush.o)
                                                  common/libcommon.a(exports.o)
                                                  common/libcommon.a(cmd_usb.o)
                                                  common/libcommon.a(cmd_nand.o)
                                                  common/libcommon.a(cmd_mtdparts.o)
                                                  common/libcommon.a(cmd_load.o)
                                                  common/libcommon.a(cmd_ext2.o)
                                                  common/libcommon.a(cmd_bootm.o)
                                                  arch/arm/lib/libarm.a(board.o)
getenv_bootm_low                                  common/libcommon.a(image.o)
getenv_bootm_size                                 common/libcommon.a(image.o)
getenv_r                                          common/libcommon.a(cmd_nvedit.o)
                                                  arch/arm/lib/libarm.a(board.o)
getenv_yesno                                      common/libcommon.a(image.o)
                                                  common/libcommon.a(cmd_ximg.o)
                                                  common/libcommon.a(cmd_source.o)
                                                  common/libcommon.a(cmd_bootm.o)
                                                  common/libcommon.a(cmd_autoscript.o)
gpCurFont                                         common/libcommon.a(devfont.o)
gpio_direction_input                              arch/arm/cpu/aml_meson/m1/libm1.a(gpio.o)
gpio_direction_output                             arch/arm/cpu/aml_meson/m1/libm1.a(gpio.o)
gpio_enable_edge_int                              arch/arm/cpu/aml_meson/m1/libm1.a(gpio.o)
gpio_enable_int_filter                            arch/arm/cpu/aml_meson/m1/libm1.a(gpio.o)
gpio_enable_level_int                             arch/arm/cpu/aml_meson/m1/libm1.a(gpio.o)
gpio_free                                         arch/arm/cpu/aml_meson/m1/libm1.a(gpio.o)
gpio_get_value                                    arch/arm/cpu/aml_meson/m1/libm1.a(gpio.o)
gpio_is_valid                                     arch/arm/cpu/aml_meson/m1/libm1.a(gpio.o)
gpio_key_list                                     board/amlogic/8726m_mid_refb04/lib8726m_mid_refb04.a(8726m_mid_refb04.o)
gpio_request                                      arch/arm/cpu/aml_meson/m1/libm1.a(gpio.o)
gpio_set_value                                    arch/arm/cpu/aml_meson/m1/libm1.a(gpio.o)
green_LED_off                                     arch/arm/lib/libarm.a(board.o)
green_LED_on                                      arch/arm/lib/libarm.a(board.o)
gunzip                                            lib/libgeneric.a(gunzip.o)
                                                  board/amlogic/8726m_mid_refb04/lib8726m_mid_refb04.a(upgrade.o)
                                                  common/libcommon.a(cmd_ximg.o)
                                                  common/libcommon.a(cmd_bootm.o)
gunzip_bmp                                        common/libcommon.a(cmd_bmp.o)
had_ctrlc                                         common/libcommon.a(console.o)
                                                  common/libcommon.a(main.o)
                                                  common/libcommon.a(hush.o)
handle_send_packet                                common/libcommon.a(cmd_load.o)
hang                                              arch/arm/lib/libarm.a(board.o)
                                                  board/amlogic/8726m_mid_refb04/lib8726m_mid_refb04.a(8726m_mid_refb04.o)
hex_asc                                           lib/libgeneric.a(vsprintf.o)
his_eol                                           common/libcommon.a(cmd_load.o)
his_pad_char                                      common/libcommon.a(cmd_load.o)
his_pad_count                                     common/libcommon.a(cmd_load.o)
his_quote                                         common/libcommon.a(cmd_load.o)
icache_disable                                    arch/arm/lib/libarm.a(cache.o)
                                                  arch/arm/cpu/aml_meson/libaml_meson.a(cpu.o)
                                                  common/libcommon.a(kgdb_stubs.o)
icache_enable                                     arch/arm/lib/libarm.a(cache.o)
                                                  common/libcommon.a(kgdb_stubs.o)
icache_invalid                                    arch/arm/lib/libarm.a(cache.o)
icache_status                                     arch/arm/lib/libarm.a(cache.o)
                                                  common/libcommon.a(kgdb_stubs.o)
                                                  arch/arm/lib/libarm.a(board.o)
iget_locked                                       fs/ubifs/libubifs.a(super.o)
image_check_dcrc                                  common/libcommon.a(image.o)
                                                  board/amlogic/8726m_mid_refb04/lib8726m_mid_refb04.a(8726m_mid_refb04.o)
                                                  common/libcommon.a(cmd_ximg.o)
                                                  common/libcommon.a(cmd_source.o)
                                                  common/libcommon.a(cmd_bootm.o)
                                                  common/libcommon.a(cmd_autoscript.o)
image_check_hcrc                                  common/libcommon.a(image.o)
                                                  board/amlogic/8726m_mid_refb04/lib8726m_mid_refb04.a(upgrade.o)
                                                  board/amlogic/8726m_mid_refb04/lib8726m_mid_refb04.a(8726m_mid_refb04.o)
                                                  common/libcommon.a(cmd_ximg.o)
                                                  common/libcommon.a(cmd_usb.o)
                                                  common/libcommon.a(cmd_source.o)
                                                  common/libcommon.a(cmd_bootm.o)
                                                  common/libcommon.a(cmd_autoscript.o)
image_check_name                                  board/amlogic/8726m_mid_refb04/lib8726m_mid_refb04.a(8726m_mid_refb04.o)
image_multi_count                                 common/libcommon.a(image.o)
                                                  common/libcommon.a(cmd_ximg.o)
image_multi_getimg                                common/libcommon.a(image.o)
                                                  common/libcommon.a(cmd_ximg.o)
                                                  common/libcommon.a(cmd_bootm.o)
image_print_contents                              common/libcommon.a(image.o)
                                                  board/amlogic/8726m_mid_refb04/lib8726m_mid_refb04.a(8726m_mid_refb04.o)
                                                  common/libcommon.a(cmd_usb.o)
                                                  common/libcommon.a(cmd_nand.o)
                                                  common/libcommon.a(cmd_bootm.o)
indir1_blkno                                      fs/ext2/libext2fs.a(ext2fs.o)
indir1_block                                      fs/ext2/libext2fs.a(ext2fs.o)
indir1_size                                       fs/ext2/libext2fs.a(ext2fs.o)
indir2_blkno                                      fs/ext2/libext2fs.a(ext2fs.o)
indir2_block                                      fs/ext2/libext2fs.a(ext2fs.o)
indir2_size                                       fs/ext2/libext2fs.a(ext2fs.o)
inflate                                           lib/libgeneric.a(zlib.o)
                                                  lib/libgeneric.a(gunzip.o)
inflateEnd                                        lib/libgeneric.a(zlib.o)
                                                  lib/libgeneric.a(gunzip.o)
inflateInit2_                                     lib/libgeneric.a(zlib.o)
                                                  lib/libgeneric.a(gunzip.o)
inflateInit_                                      lib/libgeneric.a(zlib.o)
inflateReset                                      lib/libgeneric.a(zlib.o)
inflate_fast                                      lib/libgeneric.a(zlib.o)
inflate_table                                     lib/libgeneric.a(zlib.o)
init_part                                         disk/libdisk.a(part.o)
                                                  common/libcommon.a(usb_storage.o)
                                                  drivers/mmc/libmmc.a(mmc.o)
init_sequence                                     arch/arm/lib/libarm.a(board.o)
insert_old_idx_znode                              fs/ubifs/libubifs.a(tnc.o)
install_auto_complete                             common/libcommon.a(command.o)
                                                  common/libcommon.a(main.o)
iput                                              fs/ubifs/libubifs.a(super.o)
                                                  fs/ubifs/libubifs.a(recovery.o)
is_rect_invalid                                   common/libcommon.a(devfont.o)
jumptable_init                                    common/libcommon.a(exports.o)
                                                  arch/arm/lib/libarm.a(board.o)
k_data_char                                       common/libcommon.a(cmd_load.o)
k_data_init                                       common/libcommon.a(cmd_load.o)
k_data_restore                                    common/libcommon.a(cmd_load.o)
k_data_save                                       common/libcommon.a(cmd_load.o)
key_init                                          board/amlogic/8726m_mid_refb04/lib8726m_mid_refb04.a(8726m_mid_refb04.o)
kgdb_breakpoint                                   arch/arm/lib/libarm.a(kgdb.o)
                                                  common/libcommon.a(kgdb.o)
kgdb_enter                                        arch/arm/lib/libarm.a(kgdb.o)
                                                  common/libcommon.a(kgdb.o)
kgdb_error                                        common/libcommon.a(kgdb.o)
                                                  arch/arm/lib/libarm.a(kgdb.o)
kgdb_exit                                         arch/arm/lib/libarm.a(kgdb.o)
                                                  common/libcommon.a(kgdb.o)
kgdb_flush_cache_all                              common/libcommon.a(kgdb_stubs.o)
                                                  arch/arm/lib/libarm.a(kgdb.o)
                                                  common/libcommon.a(kgdb.o)
kgdb_flush_cache_range                            common/libcommon.a(kgdb_stubs.o)
                                                  common/libcommon.a(kgdb.o)
kgdb_getregs                                      arch/arm/lib/libarm.a(kgdb.o)
                                                  common/libcommon.a(kgdb.o)
kgdb_init                                         common/libcommon.a(kgdb.o)
                                                  board/amlogic/8726m_mid_refb04/lib8726m_mid_refb04.a(8726m_mid_refb04.o)
                                                  arch/arm/lib/libarm.a(board.o)
kgdb_interruptible                                arch/arm/lib/libarm.a(kgdb.o)
                                                  common/libcommon.a(kgdb.o)
kgdb_longjmp                                      arch/arm/lib/libarm.a(kgdb.o)
                                                  common/libcommon.a(kgdb.o)
kgdb_output_string                                common/libcommon.a(kgdb.o)
kgdb_putreg                                       arch/arm/lib/libarm.a(kgdb.o)
                                                  common/libcommon.a(kgdb.o)
kgdb_putregs                                      arch/arm/lib/libarm.a(kgdb.o)
                                                  common/libcommon.a(kgdb.o)
kgdb_serial_init                                  arch/arm/cpu/aml_meson/m1/libm1.a(serial.o)
                                                  common/libcommon.a(kgdb.o)
kgdb_setjmp                                       arch/arm/lib/libarm.a(kgdb.o)
                                                  common/libcommon.a(kgdb.o)
kgdb_trap                                         arch/arm/lib/libarm.a(kgdb.o)
ktrans                                            common/libcommon.a(cmd_load.o)
last_return_code                                  common/libcommon.a(hush.o)
lcd_disable                                       board/amlogic/8726m_mid_refb04/lib8726m_mid_refb04.a(lcd.o)
lcd_display_bitmap                                common/libcommon.a(lcd_aml.o)
                                                  common/libcommon.a(cmd_bmp.o)
lcd_drawchars                                     common/libcommon.a(lcd_aml.o)
lcd_enable                                        board/amlogic/8726m_mid_refb04/lib8726m_mid_refb04.a(lcd.o)
lcd_init                                          common/libcommon.a(lcd_aml.o)
                                                  arch/arm/lib/libarm.a(board.o)
lcd_is_enabled                                    common/libcommon.a(lcd_aml.o)
lcd_printf                                        common/libcommon.a(lcd_aml.o)
                                                  board/amlogic/8726m_mid_refb04/lib8726m_mid_refb04.a(8726m_mid_refb04.o)
lcd_putc                                          common/libcommon.a(lcd_aml.o)
lcd_puts                                          common/libcommon.a(lcd_aml.o)
lcd_puts_line                                     common/libcommon.a(lcd_aml.o)
lcd_setmem                                        common/libcommon.a(lcd_aml.o)
load_addr                                         common/libcommon.a(cmd_bootm.o)
                                                  common/libcommon.a(cmd_ximg.o)
                                                  common/libcommon.a(cmd_usb.o)
                                                  common/libcommon.a(cmd_nvedit.o)
                                                  common/libcommon.a(cmd_nand.o)
                                                  common/libcommon.a(cmd_load.o)
                                                  common/libcommon.a(cmd_ext2.o)
                                                  common/libcommon.a(cmd_bmp.o)
                                                  arch/arm/lib/libarm.a(board.o)
logo_show                                         board/amlogic/8726m_mid_refb04/lib8726m_mid_refb04.a(8726m_mid_refb04.o)
logo_show_n                                       board/amlogic/8726m_mid_refb04/lib8726m_mid_refb04.a(8726m_mid_refb04.o)
lzmaBuffToBuffDecompress                          lib/lzma/liblzma.a(LzmaTools.o)
                                                  common/libcommon.a(cmd_bootm.o)
lzo1x_decompress_safe                             lib/lzo/liblzo.a(lzo1x_decompress.o)
                                                  fs/ubifs/libubifs.a(ubifs.o)
lzop_decompress                                   lib/lzo/liblzo.a(lzo1x_decompress.o)
                                                  common/libcommon.a(cmd_bootm.o)
main_loop                                         common/libcommon.a(main.o)
                                                  arch/arm/lib/libarm.a(board.o)
malloc                                            common/libcommon.a(dlmalloc.o)
                                                  drivers/usb/host/libusb_host.a(dwc_otg_hcd.o)
                                                  drivers/spi/libspi.a(amlogic_spi_a.o)
                                                  drivers/mtd/spi/libspi_flash.a(winbond.o)
                                                  drivers/mtd/spi/libspi_flash.a(sst.o)
                                                  drivers/mtd/spi/libspi_flash.a(macronix.o)
                                                  drivers/mtd/ubi/libubi.a(misc.o)
                                                  drivers/mtd/ubi/libubi.a(scan.o)
                                                  drivers/mtd/ubi/libubi.a(wl.o)
                                                  drivers/mtd/ubi/libubi.a(eba.o)
                                                  drivers/mtd/ubi/libubi.a(kapi.o)
                                                  drivers/mtd/ubi/libubi.a(upd.o)
                                                  drivers/mtd/ubi/libubi.a(vmt.o)
                                                  drivers/mtd/ubi/libubi.a(vtbl.o)
                                                  drivers/mtd/ubi/libubi.a(build.o)
                                                  fs/ubifs/libubifs.a(replay.o)
                                                  fs/ubifs/libubifs.a(recovery.o)
                                                  fs/ubifs/libubifs.a(orphan.o)
                                                  fs/ubifs/libubifs.a(tnc_misc.o)
                                                  fs/ubifs/libubifs.a(tnc.o)
                                                  fs/ubifs/libubifs.a(lpt.o)
                                                  fs/ubifs/libubifs.a(sb.o)
                                                  fs/ubifs/libubifs.a(super.o)
                                                  fs/ubifs/libubifs.a(ubifs.o)
                                                  fs/ext2/libext2fs.a(ext2fs.o)
                                                  arch/arm/cpu/aml_meson/m1/libm1.a(tcon.o)
                                                  lib/lzma/liblzma.a(LzmaTools.o)
                                                  lib/libgeneric.a(zlib.o)
                                                  lib/libgeneric.a(string.o)
                                                  lib/libgeneric.a(gunzip.o)
                                                  board/amlogic/8726m_mid_refb04/lib8726m_mid_refb04.a(8726m_mid_refb04.o)
                                                  common/libcommon.a(hush.o)
                                                  common/libcommon.a(exports.o)
                                                  common/libcommon.a(env_common.o)
                                                  common/libcommon.a(cmd_ubi.o)
                                                  common/libcommon.a(cmd_source.o)
                                                  common/libcommon.a(cmd_nand.o)
                                                  common/libcommon.a(cmd_mtdparts.o)
                                                  common/libcommon.a(cmd_bootm.o)
                                                  common/libcommon.a(cmd_autoscript.o)
                                                  drivers/mtd/nand/libnand.a(nand_bbt.o)
                                                  drivers/mtd/nand/libnand.a(nand_base.o)
malloc_trim                                       common/libcommon.a(dlmalloc.o)
malloc_usable_size                                common/libcommon.a(dlmalloc.o)
mallopt                                           common/libcommon.a(dlmalloc.o)
mapset                                            common/libcommon.a(hush.o)
mdelay                                            lib/libgeneric.a(time.o)
                                                  board/amlogic/8726m_mid_refb04/lib8726m_mid_refb04.a(lcd.o)
                                                  board/amlogic/8726m_mid_refb04/lib8726m_mid_refb04.a(8726m_mid_refb04.o)
mem_malloc_brk                                    common/libcommon.a(dlmalloc.o)
mem_malloc_end                                    common/libcommon.a(dlmalloc.o)
mem_malloc_init                                   common/libcommon.a(dlmalloc.o)
                                                  arch/arm/lib/libarm.a(board.o)
mem_malloc_start                                  common/libcommon.a(dlmalloc.o)
memalign                                          common/libcommon.a(dlmalloc.o)
memchr                                            lib/libgeneric.a(string.o)
memcmp                                            lib/libgeneric.a(string.o)
                                                  drivers/mtd/ubi/libubi.a(eba.o)
                                                  drivers/mtd/ubi/libubi.a(vtbl.o)
                                                  fs/ubifs/libubifs.a(recovery.o)
                                                  fs/ubifs/libubifs.a(tnc.o)
                                                  fs/ubifs/libubifs.a(master.o)
                                                  arch/arm/cpu/aml_meson/m1/libm1.a(osd_hw.o)
                                                  common/libcommon.a(env_common.o)
                                                  common/libcommon.a(command.o)
                                                  drivers/mtd/nand/libnand.a(aml_nand.o)
memcpy                                            lib/libgeneric.a(string.o)
                                                  drivers/usb/host/libusb_host.a(dwc_otg_hcd.o)
                                                  drivers/spi/libspi.a(amlogic_spi_a.o)
                                                  drivers/mtd/ubi/libubi.a(eba.o)
                                                  drivers/mtd/ubi/libubi.a(upd.o)
                                                  drivers/mtd/ubi/libubi.a(vmt.o)
                                                  drivers/mtd/ubi/libubi.a(vtbl.o)
                                                  drivers/mtd/ubi/libubi.a(build.o)
                                                  drivers/mtd/nand/libnand.a(nand_util.o)
                                                  fs/ubifs/libubifs.a(replay.o)
                                                  fs/ubifs/libubifs.a(recovery.o)
                                                  fs/ubifs/libubifs.a(tnc.o)
                                                  fs/ubifs/libubifs.a(lprops.o)
                                                  fs/ubifs/libubifs.a(lpt.o)
                                                  fs/ubifs/libubifs.a(master.o)
                                                  fs/ubifs/libubifs.a(sb.o)
                                                  fs/ubifs/libubifs.a(super.o)
                                                  fs/ubifs/libubifs.a(ubifs.o)
                                                  fs/ext2/libext2fs.a(dev.o)
                                                  fs/fat/libfat.a(fat.o)
                                                  arch/arm/lib/libarm.a(kgdb.o)
                                                  arch/arm/cpu/aml_meson/m1/libm1.a(osd_hw.o)
                                                  arch/arm/cpu/aml_meson/m1/libm1.a(tcon.o)
                                                  lib/lzma/liblzma.a(LzmaDec.o)
                                                  lib/libgeneric.a(zlib.o)
                                                  board/amlogic/8726m_mid_refb04/lib8726m_mid_refb04.a(upgrade.o)
                                                  board/amlogic/8726m_mid_refb04/lib8726m_mid_refb04.a(lcd.o)
                                                  common/libcommon.a(xyzModem.o)
                                                  common/libcommon.a(usb_storage.o)
                                                  common/libcommon.a(usb.o)
                                                  common/libcommon.a(stdio.o)
                                                  common/libcommon.a(lcd_aml.o)
                                                  common/libcommon.a(kgdb.o)
                                                  common/libcommon.a(env_common.o)
                                                  common/libcommon.a(dlmalloc.o)
                                                  common/libcommon.a(cmd_ubi.o)
                                                  common/libcommon.a(cmd_nvedit.o)
                                                  common/libcommon.a(cmd_mtdparts.o)
                                                  common/libcommon.a(cmd_load.o)
                                                  drivers/mtd/nand/libnand.a(nand_bbt.o)
                                                  drivers/mtd/nand/libnand.a(nand_base.o)
                                                  drivers/mtd/nand/libnand.a(aml_nand.o)
                                                  drivers/mmc/libmmc.a(mmc.o)
                                                  arch/arm/lib/libarm.a(interrupts.o)
memmove                                           lib/libgeneric.a(string.o)
                                                  common/libcommon.a(image.o)
                                                  common/libcommon.a(cmd_ximg.o)
                                                  common/libcommon.a(cmd_source.o)
                                                  common/libcommon.a(cmd_bootm.o)
                                                  common/libcommon.a(cmd_autoscript.o)
memmove_wd                                        common/libcommon.a(image.o)
                                                  common/libcommon.a(cmd_bootm.o)
memscan                                           lib/libgeneric.a(string.o)
memset                                            lib/libgeneric.a(string.o)
                                                  drivers/usb/host/libusb_host.a(dwc_otg_hcd.o)
                                                  drivers/mtd/ubi/libubi.a(io.o)
                                                  drivers/mtd/ubi/libubi.a(eba.o)
                                                  drivers/mtd/ubi/libubi.a(upd.o)
                                                  drivers/mtd/ubi/libubi.a(vmt.o)
                                                  drivers/mtd/ubi/libubi.a(vtbl.o)
                                                  drivers/mtd/nand/libnand.a(nand_util.o)
                                                  drivers/mmc/libmmc.a(aml_sd_mmc.o)
                                                  fs/ubifs/libubifs.a(io.o)
                                                  fs/ubifs/libubifs.a(recovery.o)
                                                  fs/ubifs/libubifs.a(super.o)
                                                  fs/ubifs/libubifs.a(ubifs.o)
                                                  fs/ext2/libext2fs.a(ext2fs.o)
                                                  lib/lzma/liblzma.a(LzmaTools.o)
                                                  common/libcommon.a(usb_storage.o)
                                                  common/libcommon.a(usb.o)
                                                  common/libcommon.a(stdio.o)
                                                  common/libcommon.a(lcd_aml.o)
                                                  common/libcommon.a(hush.o)
                                                  common/libcommon.a(env_common.o)
                                                  common/libcommon.a(dlmalloc.o)
                                                  common/libcommon.a(cmd_usb.o)
                                                  common/libcommon.a(cmd_ubi.o)
                                                  common/libcommon.a(cmd_nand.o)
                                                  common/libcommon.a(cmd_mtdparts.o)
                                                  common/libcommon.a(cmd_bootm.o)
                                                  drivers/mtd/nand/libnand.a(nand_bbt.o)
                                                  drivers/mtd/nand/libnand.a(nand_base.o)
                                                  drivers/mtd/nand/libnand.a(aml_nand.o)
                                                  drivers/i2c/libi2c.a(aml_i2c.o)
                                                  arch/arm/lib/libarm.a(board.o)
misc_init_r                                       board/amlogic/8726m_mid_refb04/lib8726m_mid_refb04.a(8726m_mid_refb04.o)
                                                  arch/arm/lib/libarm.a(board.o)
mktime                                            drivers/rtc/librtc.a(rtc-lib.o)
mm_last_addr                                      common/libcommon.a(cmd_mem.o)
mm_last_size                                      common/libcommon.a(cmd_mem.o)
mmc_change_freq                                   drivers/mmc/libmmc.a(mmc.o)
mmc_get_dev                                       drivers/mmc/libmmc.a(mmc.o)
                                                  disk/libdisk.a(part.o)
mmc_go_idle                                       drivers/mmc/libmmc.a(mmc.o)
mmc_init                                          drivers/mmc/libmmc.a(mmc.o)
                                                  common/libcommon.a(cmd_mmc.o)
mmc_initialize                                    drivers/mmc/libmmc.a(mmc.o)
                                                  arch/arm/lib/libarm.a(board.o)
mmc_read_block                                    drivers/mmc/libmmc.a(mmc.o)
mmc_read_multi                                    drivers/mmc/libmmc.a(mmc.o)
mmc_register                                      drivers/mmc/libmmc.a(mmc.o)
                                                  board/amlogic/8726m_mid_refb04/lib8726m_mid_refb04.a(8726m_mid_refb04.o)
mmc_send_cmd                                      drivers/mmc/libmmc.a(mmc.o)
mmc_send_ext_csd                                  drivers/mmc/libmmc.a(mmc.o)
mmc_send_if_cond                                  drivers/mmc/libmmc.a(mmc.o)
mmc_send_op_cond                                  drivers/mmc/libmmc.a(mmc.o)
mmc_set_blocklen                                  drivers/mmc/libmmc.a(mmc.o)
mmc_set_bus_width                                 drivers/mmc/libmmc.a(mmc.o)
mmc_set_clock                                     drivers/mmc/libmmc.a(mmc.o)
mmc_set_ios                                       drivers/mmc/libmmc.a(mmc.o)
mmc_startup                                       drivers/mmc/libmmc.a(mmc.o)
mmc_switch                                        drivers/mmc/libmmc.a(mmc.o)
mmc_write_block                                   drivers/mmc/libmmc.a(mmc.o)
mmc_write_multi                                   drivers/mmc/libmmc.a(mmc.o)
mmu_table                                         arch/arm/cpu/aml_meson/m1/libm1.a(mmutable.o)
                                                  arch/arm/cpu/aml_meson/start.o
monitor_flash_len                                 arch/arm/lib/libarm.a(board.o)
mtd_device_validate                               common/libcommon.a(cmd_mtdparts.o)
mtd_erase_callback                                drivers/mtd/libmtd.a(mtdpart.o)
                                                  drivers/mtd/nand/libnand.a(nand_base.o)
mtd_id_parse                                      common/libcommon.a(cmd_mtdparts.o)
mtd_partitions                                    drivers/mtd/libmtd.a(mtdpart.o)
mtd_table                                         drivers/mtd/libmtd.a(mtdcore.o)
mtdids                                            common/libcommon.a(cmd_mtdparts.o)
mtdparts_init                                     common/libcommon.a(cmd_mtdparts.o)
                                                  common/libcommon.a(cmd_ubi.o)
                                                  common/libcommon.a(cmd_nand.o)
multipliers                                       drivers/mmc/libmmc.a(mmc.o)
mxic_erase                                        drivers/mtd/spi/libspi_flash.a(macronix.o)
nand_boot_read                                    drivers/mtd/nand/libnand.a(nand_util.o)
                                                  common/libcommon.a(cmd_nand.o)
nand_boot_write                                   drivers/mtd/nand/libnand.a(nand_util.o)
                                                  common/libcommon.a(cmd_nand.o)
nand_calculate_ecc                                drivers/mtd/nand/libnand.a(nand_ecc.o)
                                                  drivers/mtd/nand/libnand.a(nand_base.o)
nand_correct_data                                 drivers/mtd/nand/libnand.a(nand_ecc.o)
                                                  drivers/mtd/nand/libnand.a(nand_base.o)
nand_curr_device                                  drivers/mtd/nand/libnand.a(m1_nand.o)
                                                  common/libcommon.a(cmd_nand.o)
nand_default_bbt                                  drivers/mtd/nand/libnand.a(nand_bbt.o)
                                                  drivers/mtd/nand/libnand.a(nand_base.o)
nand_erase_nand                                   drivers/mtd/nand/libnand.a(nand_base.o)
                                                  drivers/mtd/nand/libnand.a(nand_bbt.o)
nand_erase_opts                                   drivers/mtd/nand/libnand.a(nand_util.o)
                                                  common/libcommon.a(env_nand.o)
                                                  common/libcommon.a(cmd_nand.o)
nand_flash_ids                                    drivers/mtd/nand/libnand.a(nand_ids.o)
                                                  drivers/mtd/nand/libnand.a(nand_base.o)
nand_info                                         common/libcommon.a(env_nand.o)
                                                  common/libcommon.a(cmd_nand.o)
                                                  drivers/mtd/nand/libnand.a(m1_nand.o)
nand_init                                         drivers/mtd/nand/libnand.a(m1_nand.o)
                                                  common/libcommon.a(cmd_nand.o)
                                                  arch/arm/lib/libarm.a(board.o)
nand_isbad_bbt                                    drivers/mtd/nand/libnand.a(nand_bbt.o)
                                                  drivers/mtd/nand/libnand.a(nand_base.o)
nand_manuf_ids                                    drivers/mtd/nand/libnand.a(nand_ids.o)
                                                  drivers/mtd/nand/libnand.a(nand_base.o)
                                                  drivers/mtd/nand/libnand.a(aml_nand.o)
nand_raw_read_factory_info                        drivers/mtd/nand/libnand.a(nand_base.o)
                                                  drivers/mtd/nand/libnand.a(nand_util.o)
nand_raw_read_nand_dev                            drivers/mtd/nand/libnand.a(nand_util.o)
                                                  common/libcommon.a(cmd_nand.o)
nand_read_skip_bad                                drivers/mtd/nand/libnand.a(nand_util.o)
                                                  common/libcommon.a(cmd_nand.o)
nand_release                                      drivers/mtd/nand/libnand.a(nand_base.o)
nand_rom_read                                     drivers/mtd/nand/libnand.a(nand_util.o)
                                                  common/libcommon.a(cmd_nand.o)
nand_rom_write                                    drivers/mtd/nand/libnand.a(nand_util.o)
                                                  common/libcommon.a(cmd_nand.o)
nand_scan                                         drivers/mtd/nand/libnand.a(nand_base.o)
                                                  drivers/mtd/nand/libnand.a(aml_nand.o)
nand_scan_bbt                                     drivers/mtd/nand/libnand.a(nand_bbt.o)
nand_scan_ident                                   drivers/mtd/nand/libnand.a(nand_base.o)
nand_scan_tail                                    drivers/mtd/nand/libnand.a(nand_base.o)
                                                  drivers/mtd/nand/libnand.a(aml_nand.o)
nand_update_bbt                                   drivers/mtd/nand/libnand.a(nand_bbt.o)
                                                  drivers/mtd/nand/libnand.a(nand_base.o)
nand_wait_ready                                   drivers/mtd/nand/libnand.a(nand_base.o)
nand_write_skip_bad                               drivers/mtd/nand/libnand.a(nand_util.o)
                                                  common/libcommon.a(cmd_nand.o)
nesting_level                                     common/libcommon.a(hush.o)
new_pipe                                          common/libcommon.a(hush.o)
oem_check_img                                     board/amlogic/8726m_mid_refb04/lib8726m_mid_refb04.a(8726m_mid_refb04.o)
                                                  board/amlogic/8726m_mid_refb04/lib8726m_mid_refb04.a(debug.o)
                                                  board/amlogic/8726m_mid_refb04/lib8726m_mid_refb04.a(upgrade.o)
oem_determinate_upgrade                           board/amlogic/8726m_mid_refb04/lib8726m_mid_refb04.a(8726m_mid_refb04.o)
                                                  board/amlogic/8726m_mid_refb04/lib8726m_mid_refb04.a(upgrade.o)
oem_get_key_pressed                               board/amlogic/8726m_mid_refb04/lib8726m_mid_refb04.a(8726m_mid_refb04.o)
                                                  board/amlogic/8726m_mid_refb04/lib8726m_mid_refb04.a(debug.o)
                                                  board/amlogic/8726m_mid_refb04/lib8726m_mid_refb04.a(upgrade.o)
oem_get_key_release                               board/amlogic/8726m_mid_refb04/lib8726m_mid_refb04.a(8726m_mid_refb04.o)
oem_getc                                          board/amlogic/8726m_mid_refb04/lib8726m_mid_refb04.a(8726m_mid_refb04.o)
oem_show_engineering_board                        board/amlogic/8726m_mid_refb04/lib8726m_mid_refb04.a(8726m_mid_refb04.o)
oem_wait_key_idle                                 board/amlogic/8726m_mid_refb04/lib8726m_mid_refb04.a(8726m_mid_refb04.o)
                                                  board/amlogic/8726m_mid_refb04/lib8726m_mid_refb04.a(debug.o)
                                                  board/amlogic/8726m_mid_refb04/lib8726m_mid_refb04.a(upgrade.o)
op_table                                          common/libcommon.a(cmd_itest.o)
os_data_char                                      common/libcommon.a(cmd_load.o)
os_data_init                                      common/libcommon.a(cmd_load.o)
osd_hw_setup                                      board/amlogic/8726m_mid_refb04/lib8726m_mid_refb04.a(lcd.o)
osd_init_hw                                       arch/arm/cpu/aml_meson/m1/libm1.a(osd_hw.o)
                                                  board/amlogic/8726m_mid_refb04/lib8726m_mid_refb04.a(lcd.o)
osd_setup                                         arch/arm/cpu/aml_meson/m1/libm1.a(osd_hw.o)
                                                  board/amlogic/8726m_mid_refb04/lib8726m_mid_refb04.a(lcd.o)
panel_info                                        board/amlogic/8726m_mid_refb04/lib8726m_mid_refb04.a(lcd.o)
                                                  common/libcommon.a(lcd_aml.o)
panic                                             lib/libgeneric.a(vsprintf.o)
                                                  drivers/mtd/ubi/libubi.a(scan.o)
                                                  drivers/mtd/ubi/libubi.a(wl.o)
                                                  drivers/mtd/libmtd.a(mtdpart.o)
                                                  drivers/mtd/libmtd.a(mtdcore.o)
                                                  fs/ubifs/libubifs.a(replay.o)
                                                  arch/arm/cpu/aml_meson/m1/libm1.a(tcon.o)
                                                  common/libcommon.a(kgdb.o)
                                                  drivers/mtd/nand/libnand.a(nand_base.o)
                                                  drivers/mtd/nand/libnand.a(aml_nand.o)
                                                  drivers/i2c/libi2c.a(aml_i2c.o)
                                                  arch/arm/lib/libarm.a(interrupts.o)
parse_file_outer                                  common/libcommon.a(hush.o)
                                                  common/libcommon.a(main.o)
parse_line                                        common/libcommon.a(main.o)
parse_num                                         common/libcommon.a(xyzModem.o)
parse_string_outer                                common/libcommon.a(hush.o)
                                                  common/libcommon.a(main.o)
                                                  common/libcommon.a(cmd_source.o)
                                                  common/libcommon.a(cmd_bootm.o)
                                                  common/libcommon.a(cmd_autoscript.o)
power_hold                                        board/amlogic/8726m_mid_refb04/lib8726m_mid_refb04.a(powerkey.o)
                                                  board/amlogic/8726m_mid_refb04/lib8726m_mid_refb04.a(8726m_mid_refb04.o)
                                                  common/libcommon.a(main.o)
                                                  common/libcommon.a(cmd_boot.o)
power_off_backlight                               board/amlogic/8726m_mid_refb04/lib8726m_mid_refb04.a(lcd.o)
power_on_backlight                                board/amlogic/8726m_mid_refb04/lib8726m_mid_refb04.a(lcd.o)
power_unhold                                      board/amlogic/8726m_mid_refb04/lib8726m_mid_refb04.a(powerkey.o)
                                                  board/amlogic/8726m_mid_refb04/lib8726m_mid_refb04.a(8726m_mid_refb04.o)
                                                  common/libcommon.a(cmd_boot.o)
powerkey_init                                     board/amlogic/8726m_mid_refb04/lib8726m_mid_refb04.a(powerkey.o)
                                                  common/libcommon.a(main.o)
powerkey_scan                                     board/amlogic/8726m_mid_refb04/lib8726m_mid_refb04.a(powerkey.o)
                                                  board/amlogic/8726m_mid_refb04/lib8726m_mid_refb04.a(8726m_mid_refb04.o)
prepare_update                                    board/amlogic/8726m_mid_refb04/lib8726m_mid_refb04.a(8726m_mid_refb04.o)
print_buffer                                      lib/libgeneric.a(display_options.o)
                                                  drivers/mtd/nand/libnand.a(nand_util.o)
                                                  common/libcommon.a(cmd_mem.o)
print_mmc_devices                                 drivers/mmc/libmmc.a(mmc.o)
                                                  common/libcommon.a(cmd_mmc.o)
print_part                                        disk/libdisk.a(part.o)
                                                  common/libcommon.a(cmd_usb.o)
                                                  common/libcommon.a(cmd_mmc.o)
print_part_dos                                    disk/libdisk.a(part_dos.o)
                                                  disk/libdisk.a(part.o)
print_size                                        lib/libgeneric.a(display_options.o)
                                                  common/libcommon.a(image.o)
                                                  arch/arm/lib/libarm.a(board.o)
printf                                            common/libcommon.a(console.o)
                                                  arch/arm/cpu/aml_meson/m1/libm1.a(usb.o)
                                                  drivers/usb/host/libusb_host.a(dwc_otg_hcd.o)
                                                  drivers/mtd/spi/libspi_flash.a(winbond.o)
                                                  drivers/mtd/spi/libspi_flash.a(sst.o)
                                                  drivers/mtd/spi/libspi_flash.a(macronix.o)
                                                  drivers/mtd/spi/libspi_flash.a(spi_flash_aml.o)
                                                  drivers/mtd/ubi/libubi.a(scan.o)
                                                  drivers/mtd/ubi/libubi.a(wl.o)
                                                  drivers/mtd/ubi/libubi.a(io.o)
                                                  drivers/mtd/ubi/libubi.a(eba.o)
                                                  drivers/mtd/ubi/libubi.a(kapi.o)
                                                  drivers/mtd/ubi/libubi.a(vmt.o)
                                                  drivers/mtd/ubi/libubi.a(vtbl.o)
                                                  drivers/mtd/ubi/libubi.a(build.o)
                                                  drivers/mtd/nand/libnand.a(nand_util.o)
                                                  drivers/mtd/libmtd.a(mtdpart.o)
                                                  drivers/mtd/libmtd.a(mtdcore.o)
                                                  drivers/mmc/libmmc.a(aml_sd_mmc.o)
                                                  disk/libdisk.a(part_dos.o)
                                                  disk/libdisk.a(part.o)
                                                  fs/ubifs/libubifs.a(io.o)
                                                  fs/ubifs/libubifs.a(replay.o)
                                                  fs/ubifs/libubifs.a(recovery.o)
                                                  fs/ubifs/libubifs.a(orphan.o)
                                                  fs/ubifs/libubifs.a(tnc_misc.o)
                                                  fs/ubifs/libubifs.a(tnc.o)
                                                  fs/ubifs/libubifs.a(scan.o)
                                                  fs/ubifs/libubifs.a(lpt.o)
                                                  fs/ubifs/libubifs.a(master.o)
                                                  fs/ubifs/libubifs.a(sb.o)
                                                  fs/ubifs/libubifs.a(super.o)
                                                  fs/ubifs/libubifs.a(ubifs.o)
                                                  fs/ext2/libext2fs.a(dev.o)
                                                  fs/ext2/libext2fs.a(ext2fs.o)
                                                  fs/fat/libfat.a(fat.o)
                                                  arch/arm/lib/libarm.a(bootm.o)
                                                  arch/arm/cpu/aml_meson/m1/libm1.a(tcon.o)
                                                  arch/arm/cpu/aml_meson/m1/libm1.a(pinmux.o)
                                                  arch/arm/cpu/aml_meson/m1/libm1.a(sdio.o)
                                                  lib/libgeneric.a(gunzip.o)
                                                  lib/libgeneric.a(display_options.o)
                                                  board/amlogic/8726m_mid_refb04/lib8726m_mid_refb04.a(debug.o)
                                                  board/amlogic/8726m_mid_refb04/lib8726m_mid_refb04.a(battery_charging.o)
                                                  board/amlogic/8726m_mid_refb04/lib8726m_mid_refb04.a(upgrade.o)
                                                  board/amlogic/8726m_mid_refb04/lib8726m_mid_refb04.a(saradc.o)
                                                  board/amlogic/8726m_mid_refb04/lib8726m_mid_refb04.a(lcd.o)
                                                  board/amlogic/8726m_mid_refb04/lib8726m_mid_refb04.a(8726m_mid_refb04.o)
                                                  common/libcommon.a(xyzModem.o)
                                                  common/libcommon.a(usb_storage.o)
                                                  common/libcommon.a(usb.o)
                                                  common/libcommon.a(main.o)
                                                  common/libcommon.a(lcd_aml.o)
                                                  common/libcommon.a(kgdb.o)
                                                  common/libcommon.a(image.o)
                                                  common/libcommon.a(hush.o)
                                                  common/libcommon.a(exports.o)
                                                  common/libcommon.a(env_common.o)
                                                  common/libcommon.a(command.o)
                                                  common/libcommon.a(cmd_ximg.o)
                                                  common/libcommon.a(cmd_version.o)
                                                  common/libcommon.a(cmd_usb.o)
                                                  common/libcommon.a(cmd_ubifs.o)
                                                  common/libcommon.a(cmd_ubi.o)
                                                  common/libcommon.a(cmd_source.o)
                                                  common/libcommon.a(cmd_sf.o)
                                                  common/libcommon.a(cmd_nvedit.o)
                                                  common/libcommon.a(cmd_nand.o)
                                                  common/libcommon.a(cmd_mtdparts.o)
                                                  common/libcommon.a(cmd_mmc.o)
                                                  common/libcommon.a(cmd_mem.o)
                                                  common/libcommon.a(cmd_load.o)
                                                  common/libcommon.a(cmd_itest.o)
                                                  common/libcommon.a(cmd_fat.o)
                                                  common/libcommon.a(cmd_ext2.o)
                                                  common/libcommon.a(cmd_console.o)
                                                  common/libcommon.a(cmd_bootm.o)
                                                  common/libcommon.a(cmd_boot.o)
                                                  common/libcommon.a(cmd_bmp.o)
                                                  common/libcommon.a(cmd_bdinfo.o)
                                                  common/libcommon.a(cmd_autoscript.o)
                                                  drivers/rtc/librtc.a(aml_rtc.o)
                                                  drivers/mtd/nand/libnand.a(nand_bbt.o)
                                                  drivers/mtd/nand/libnand.a(nand_base.o)
                                                  drivers/mtd/nand/libnand.a(aml_nand.o)
                                                  drivers/mtd/nand/libnand.a(m1_nand.o)
                                                  drivers/mmc/libmmc.a(mmc.o)
                                                  drivers/i2c/libi2c.a(aml_i2c.o)
                                                  arch/arm/lib/libarm.a(interrupts.o)
                                                  arch/arm/lib/libarm.a(board.o)
putDebugChar                                      arch/arm/cpu/aml_meson/m1/libm1.a(serial.o)
                                                  common/libcommon.a(kgdb.o)
putDebugStr                                       arch/arm/cpu/aml_meson/m1/libm1.a(serial.o)
                                                  common/libcommon.a(kgdb.o)
put_mtd_device                                    drivers/mtd/libmtd.a(mtdcore.o)
                                                  drivers/mtd/ubi/libubi.a(build.o)
putc                                              common/libcommon.a(console.o)
                                                  fs/ext2/libext2fs.a(ext2fs.o)
                                                  lib/libgeneric.a(vsprintf.o)
                                                  lib/libgeneric.a(display_options.o)
                                                  common/libcommon.a(xyzModem.o)
                                                  common/libcommon.a(main.o)
                                                  common/libcommon.a(exports.o)
                                                  common/libcommon.a(command.o)
                                                  common/libcommon.a(cmd_nvedit.o)
                                                  common/libcommon.a(cmd_nand.o)
                                                  common/libcommon.a(cmd_mem.o)
                                                  common/libcommon.a(cmd_load.o)
                                                  common/libcommon.a(cmd_echo.o)
                                                  common/libcommon.a(cmd_console.o)
puts                                              common/libcommon.a(console.o)
                                                  disk/libdisk.a(part.o)
                                                  arch/arm/lib/libarm.a(reset.o)
                                                  lib/libgeneric.a(gunzip.o)
                                                  lib/libgeneric.a(display_options.o)
                                                  common/libcommon.a(main.o)
                                                  common/libcommon.a(kgdb.o)
                                                  common/libcommon.a(image.o)
                                                  common/libcommon.a(hush.o)
                                                  common/libcommon.a(exports.o)
                                                  common/libcommon.a(env_nand.o)
                                                  common/libcommon.a(env_common.o)
                                                  common/libcommon.a(command.o)
                                                  common/libcommon.a(cmd_ximg.o)
                                                  common/libcommon.a(cmd_usb.o)
                                                  common/libcommon.a(cmd_source.o)
                                                  common/libcommon.a(cmd_sf.o)
                                                  common/libcommon.a(cmd_nvedit.o)
                                                  common/libcommon.a(cmd_nand.o)
                                                  common/libcommon.a(cmd_mtdparts.o)
                                                  common/libcommon.a(cmd_mem.o)
                                                  common/libcommon.a(cmd_itest.o)
                                                  common/libcommon.a(cmd_fat.o)
                                                  common/libcommon.a(cmd_ext2.o)
                                                  common/libcommon.a(cmd_console.o)
                                                  common/libcommon.a(cmd_bootm.o)
                                                  common/libcommon.a(cmd_autoscript.o)
                                                  arch/arm/lib/libarm.a(board.o)
pvalloc                                           common/libcommon.a(dlmalloc.o)
rb_erase                                          lib/libgeneric.a(rbtree.o)
                                                  drivers/mtd/ubi/libubi.a(scan.o)
                                                  drivers/mtd/ubi/libubi.a(wl.o)
                                                  drivers/mtd/ubi/libubi.a(eba.o)
                                                  fs/ubifs/libubifs.a(recovery.o)
rb_first                                          lib/libgeneric.a(rbtree.o)
                                                  drivers/mtd/ubi/libubi.a(scan.o)
                                                  drivers/mtd/ubi/libubi.a(wl.o)
                                                  drivers/mtd/ubi/libubi.a(eba.o)
                                                  drivers/mtd/ubi/libubi.a(vtbl.o)
                                                  fs/ubifs/libubifs.a(replay.o)
                                                  fs/ubifs/libubifs.a(recovery.o)
rb_insert_color                                   lib/libgeneric.a(rbtree.o)
                                                  drivers/mtd/ubi/libubi.a(scan.o)
                                                  drivers/mtd/ubi/libubi.a(wl.o)
                                                  drivers/mtd/ubi/libubi.a(eba.o)
                                                  fs/ubifs/libubifs.a(log.o)
                                                  fs/ubifs/libubifs.a(replay.o)
                                                  fs/ubifs/libubifs.a(recovery.o)
                                                  fs/ubifs/libubifs.a(orphan.o)
                                                  fs/ubifs/libubifs.a(tnc.o)
rb_last                                           lib/libgeneric.a(rbtree.o)
                                                  drivers/mtd/ubi/libubi.a(wl.o)
rb_next                                           lib/libgeneric.a(rbtree.o)
                                                  drivers/mtd/ubi/libubi.a(scan.o)
                                                  drivers/mtd/ubi/libubi.a(wl.o)
                                                  drivers/mtd/ubi/libubi.a(eba.o)
                                                  drivers/mtd/ubi/libubi.a(vtbl.o)
                                                  fs/ubifs/libubifs.a(replay.o)
                                                  fs/ubifs/libubifs.a(recovery.o)
rb_prev                                           lib/libgeneric.a(rbtree.o)
rb_replace_node                                   lib/libgeneric.a(rbtree.o)
readenv                                           common/libcommon.a(env_nand.o)
readline                                          common/libcommon.a(main.o)
                                                  common/libcommon.a(hush.o)
                                                  common/libcommon.a(cmd_mem.o)
readline_into_buffer                              common/libcommon.a(main.o)
                                                  common/libcommon.a(cmd_nvedit.o)
realloc                                           common/libcommon.a(dlmalloc.o)
                                                  common/libcommon.a(hush.o)
red_LED_off                                       arch/arm/lib/libarm.a(board.o)
red_LED_on                                        arch/arm/lib/libarm.a(board.o)
reserved_word                                     common/libcommon.a(hush.o)
reset_cpu                                         arch/arm/cpu/aml_meson/m1/libm1.a(soc.o)
                                                  arch/arm/lib/libarm.a(reset.o)
                                                  arch/arm/lib/libarm.a(interrupts.o)
reset_timer                                       arch/arm/cpu/aml_meson/m1/libm1.a(timer.o)
                                                  drivers/mtd/nand/libnand.a(nand_base.o)
romboot_info                                      arch/arm/cpu/aml_meson/m1/libm1.a(clock.o)
romboot_nand_write                                drivers/mtd/nand/libnand.a(nand_util.o)
                                                  common/libcommon.a(cmd_nand.o)
rtc_month_days                                    drivers/rtc/librtc.a(rtc-lib.o)
rtc_ser_static_write_auto                         drivers/rtc/librtc.a(aml_rtc.o)
rtc_time_to_tm                                    drivers/rtc/librtc.a(rtc-lib.o)
                                                  drivers/rtc/librtc.a(aml_rtc.o)
rtc_tm_to_time                                    drivers/rtc/librtc.a(rtc-lib.o)
                                                  drivers/rtc/librtc.a(aml_rtc.o)
rtc_valid_tm                                      drivers/rtc/librtc.a(rtc-lib.o)
rtc_year_days                                     drivers/rtc/librtc.a(rtc-lib.o)
run_command                                       common/libcommon.a(main.o)
                                                  board/amlogic/8726m_mid_refb04/lib8726m_mid_refb04.a(debug.o)
                                                  board/amlogic/8726m_mid_refb04/lib8726m_mid_refb04.a(upgrade.o)
                                                  board/amlogic/8726m_mid_refb04/lib8726m_mid_refb04.a(8726m_mid_refb04.o)
s1_sendpacket                                     common/libcommon.a(cmd_load.o)
saradc_disable                                    board/amlogic/8726m_mid_refb04/lib8726m_mid_refb04.a(saradc.o)
saradc_enable                                     board/amlogic/8726m_mid_refb04/lib8726m_mid_refb04.a(saradc.o)
                                                  board/amlogic/8726m_mid_refb04/lib8726m_mid_refb04.a(8726m_mid_refb04.o)
saveenv                                           common/libcommon.a(env_nand.o)
                                                  common/libcommon.a(cmd_nvedit.o)
sbrk                                              common/libcommon.a(dlmalloc.o)
sd_change_freq                                    drivers/mmc/libmmc.a(mmc.o)
sd_get_card_status                                drivers/mmc/libmmc.a(mmc.o)
sd_get_sd_status                                  drivers/mmc/libmmc.a(mmc.o)
sd_send_op_cond                                   drivers/mmc/libmmc.a(mmc.o)
sd_switch                                         drivers/mmc/libmmc.a(mmc.o)
sd_wait_card_status                               drivers/mmc/libmmc.a(mmc.o)
sdelay                                            lib/libgeneric.a(time.o)
                                                  board/amlogic/8726m_mid_refb04/lib8726m_mid_refb04.a(8726m_mid_refb04.o)
search_device                                     common/libcommon.a(console.o)
send_ack                                          common/libcommon.a(cmd_load.o)
send_nack                                         common/libcommon.a(cmd_load.o)
send_pad                                          common/libcommon.a(cmd_load.o)
send_parms                                        common/libcommon.a(cmd_load.o)
send_ptr                                          common/libcommon.a(cmd_load.o)
serial_getc                                       arch/arm/cpu/aml_meson/m1/libm1.a(serial.o)
                                                  common/libcommon.a(stdio.o)
                                                  common/libcommon.a(console.o)
serial_getc_port                                  arch/arm/cpu/aml_meson/m1/libm1.a(serial.o)
serial_init                                       arch/arm/cpu/aml_meson/m1/libm1.a(serial.o)
                                                  arch/arm/lib/libarm.a(board.o)
serial_init_port                                  arch/arm/cpu/aml_meson/m1/libm1.a(serial.o)
serial_printf                                     common/libcommon.a(console.o)
serial_putc                                       arch/arm/cpu/aml_meson/m1/libm1.a(serial.o)
                                                  common/libcommon.a(stdio.o)
                                                  common/libcommon.a(lcd_aml.o)
                                                  common/libcommon.a(console.o)
serial_putc_port                                  arch/arm/cpu/aml_meson/m1/libm1.a(serial.o)
serial_putdata                                    arch/arm/cpu/aml_meson/m1/libm1.a(serial.o)
serial_putdata_port                               arch/arm/cpu/aml_meson/m1/libm1.a(serial.o)
serial_puts                                       arch/arm/cpu/aml_meson/m1/libm1.a(serial.o)
                                                  common/libcommon.a(stdio.o)
                                                  common/libcommon.a(lcd_aml.o)
                                                  common/libcommon.a(console.o)
serial_puts_port                                  arch/arm/cpu/aml_meson/m1/libm1.a(serial.o)
serial_set_pin_port                               arch/arm/cpu/aml_meson/m1/libm1.a(serial.o)
serial_setbrg                                     arch/arm/cpu/aml_meson/m1/libm1.a(serial.o)
                                                  common/libcommon.a(cmd_nvedit.o)
                                                  common/libcommon.a(cmd_load.o)
serial_setbrg_port                                arch/arm/cpu/aml_meson/m1/libm1.a(serial.o)
serial_tstc                                       arch/arm/cpu/aml_meson/m1/libm1.a(serial.o)
                                                  common/libcommon.a(stdio.o)
                                                  common/libcommon.a(console.o)
serial_tstc_port                                  arch/arm/cpu/aml_meson/m1/libm1.a(serial.o)
set_default_env                                   common/libcommon.a(env_common.o)
                                                  common/libcommon.a(env_nand.o)
                                                  common/libcommon.a(cmd_nvedit.o)
set_gpio_mode                                     arch/arm/cpu/aml_meson/m1/libm1.a(gpio.o)
                                                  board/amlogic/8726m_mid_refb04/lib8726m_mid_refb04.a(powerkey.o)
                                                  board/amlogic/8726m_mid_refb04/lib8726m_mid_refb04.a(lcd.o)
set_gpio_val                                      arch/arm/cpu/aml_meson/m1/libm1.a(gpio.o)
                                                  board/amlogic/8726m_mid_refb04/lib8726m_mid_refb04.a(powerkey.o)
                                                  board/amlogic/8726m_mid_refb04/lib8726m_mid_refb04.a(lcd.o)
set_local_var                                     common/libcommon.a(hush.o)
set_mio_mux                                       arch/arm/cpu/aml_meson/m1/libm1.a(pinmux.o)
                                                  board/amlogic/8726m_mid_refb04/lib8726m_mid_refb04.a(lcd.o)
set_muxconf_regs                                  board/amlogic/8726m_mid_refb04/lib8726m_mid_refb04.a(8726m_mid_refb04.o)
set_timer                                         arch/arm/cpu/aml_meson/m1/libm1.a(timer.o)
set_usb_phy_clock                                 arch/arm/cpu/aml_meson/m1/libm1.a(usb.o)
set_usb_phy_reset                                 arch/arm/cpu/aml_meson/m1/libm1.a(usb.o)
setenv                                            common/libcommon.a(cmd_nvedit.o)
                                                  arch/arm/lib/libarm.a(bootm.o)
                                                  common/libcommon.a(exports.o)
                                                  common/libcommon.a(console.o)
                                                  common/libcommon.a(cmd_ximg.o)
                                                  common/libcommon.a(cmd_mtdparts.o)
                                                  common/libcommon.a(cmd_load.o)
                                                  common/libcommon.a(cmd_fat.o)
                                                  common/libcommon.a(cmd_ext2.o)
                                                  common/libcommon.a(cmd_bootm.o)
setup_revision_tag                                arch/arm/lib/libarm.a(bootm.o)
sget                                              fs/ubifs/libubifs.a(super.o)
show_boot_progress                                common/libcommon.a(main.o)
                                                  arch/arm/lib/libarm.a(bootm.o)
                                                  common/libcommon.a(image.o)
                                                  common/libcommon.a(env_common.o)
                                                  common/libcommon.a(cmd_nand.o)
                                                  common/libcommon.a(cmd_bootm.o)
show_regs                                         arch/arm/lib/libarm.a(interrupts.o)
simple_itoa                                       common/libcommon.a(hush.o)
simple_strtol                                     lib/libgeneric.a(vsprintf.o)
                                                  common/libcommon.a(main.o)
                                                  common/libcommon.a(exports.o)
                                                  common/libcommon.a(cmd_test.o)
                                                  common/libcommon.a(cmd_load.o)
simple_strtoul                                    lib/libgeneric.a(vsprintf.o)
                                                  drivers/mtd/ubi/libubi.a(build.o)
                                                  fs/ubifs/libubifs.a(super.o)
                                                  arch/arm/lib/libarm.a(bootm.o)
                                                  lib/libgeneric.a(net_utils.o)
                                                  board/amlogic/8726m_mid_refb04/lib8726m_mid_refb04.a(debug.o)
                                                  board/amlogic/8726m_mid_refb04/lib8726m_mid_refb04.a(upgrade.o)
                                                  common/libcommon.a(lcd_aml.o)
                                                  common/libcommon.a(image.o)
                                                  common/libcommon.a(exports.o)
                                                  common/libcommon.a(cmd_ximg.o)
                                                  common/libcommon.a(cmd_usb.o)
                                                  common/libcommon.a(cmd_ubifs.o)
                                                  common/libcommon.a(cmd_ubi.o)
                                                  common/libcommon.a(cmd_source.o)
                                                  common/libcommon.a(cmd_sf.o)
                                                  common/libcommon.a(cmd_nvedit.o)
                                                  common/libcommon.a(cmd_nand.o)
                                                  common/libcommon.a(cmd_mtdparts.o)
                                                  common/libcommon.a(cmd_mmc.o)
                                                  common/libcommon.a(cmd_misc.o)
                                                  common/libcommon.a(cmd_mem.o)
                                                  common/libcommon.a(cmd_load.o)
                                                  common/libcommon.a(cmd_itest.o)
                                                  common/libcommon.a(cmd_fat.o)
                                                  common/libcommon.a(cmd_ext2.o)
                                                  common/libcommon.a(cmd_exit.o)
                                                  common/libcommon.a(cmd_bootm.o)
                                                  common/libcommon.a(cmd_boot.o)
                                                  common/libcommon.a(cmd_bmp.o)
                                                  common/libcommon.a(cmd_autoscript.o)
                                                  arch/arm/lib/libarm.a(board.o)
simple_strtoull                                   lib/libgeneric.a(vsprintf.o)
                                                  common/libcommon.a(image.o)
                                                  common/libcommon.a(cmd_nand.o)
source                                            common/libcommon.a(cmd_source.o)
special_key_list                                  board/amlogic/8726m_mid_refb04/lib8726m_mid_refb04.a(8726m_mid_refb04.o)
spi_claim_bus                                     drivers/spi/libspi.a(amlogic_spi_a.o)
                                                  drivers/mtd/spi/libspi_flash.a(winbond.o)
                                                  drivers/mtd/spi/libspi_flash.a(sst.o)
                                                  drivers/mtd/spi/libspi_flash.a(macronix.o)
                                                  drivers/mtd/spi/libspi_flash.a(spi_flash_aml.o)
spi_cs_activate                                   drivers/spi/libspi.a(amlogic_spi_a.o)
spi_cs_deactivate                                 drivers/spi/libspi.a(amlogic_spi_a.o)
spi_cs_is_valid                                   drivers/spi/libspi.a(amlogic_spi_a.o)
spi_flash_adr_write                               drivers/mtd/spi/libspi_flash.a(spi_flash_aml.o)
                                                  drivers/mtd/spi/libspi_flash.a(winbond.o)
                                                  drivers/mtd/spi/libspi_flash.a(sst.o)
                                                  drivers/mtd/spi/libspi_flash.a(macronix.o)
spi_flash_cmd                                     drivers/mtd/spi/libspi_flash.a(spi_flash_aml.o)
                                                  drivers/mtd/spi/libspi_flash.a(winbond.o)
                                                  drivers/mtd/spi/libspi_flash.a(sst.o)
                                                  drivers/mtd/spi/libspi_flash.a(macronix.o)
spi_flash_free                                    drivers/mtd/spi/libspi_flash.a(spi_flash_aml.o)
                                                  common/libcommon.a(cmd_sf.o)
spi_flash_probe                                   drivers/mtd/spi/libspi_flash.a(spi_flash_aml.o)
                                                  common/libcommon.a(cmd_sf.o)
spi_flash_probe_mxic                              drivers/mtd/spi/libspi_flash.a(macronix.o)
                                                  drivers/mtd/spi/libspi_flash.a(spi_flash_aml.o)
spi_flash_probe_sst                               drivers/mtd/spi/libspi_flash.a(sst.o)
                                                  drivers/mtd/spi/libspi_flash.a(spi_flash_aml.o)
spi_flash_probe_winbond                           drivers/mtd/spi/libspi_flash.a(winbond.o)
                                                  drivers/mtd/spi/libspi_flash.a(spi_flash_aml.o)
spi_flash_read_aml                                drivers/mtd/spi/libspi_flash.a(spi_flash_aml.o)
                                                  drivers/mtd/spi/libspi_flash.a(winbond.o)
                                                  drivers/mtd/spi/libspi_flash.a(sst.o)
                                                  drivers/mtd/spi/libspi_flash.a(macronix.o)
spi_flash_write_aml                               drivers/mtd/spi/libspi_flash.a(spi_flash_aml.o)
                                                  drivers/mtd/spi/libspi_flash.a(winbond.o)
                                                  drivers/mtd/spi/libspi_flash.a(sst.o)
                                                  drivers/mtd/spi/libspi_flash.a(macronix.o)
spi_free_slave                                    drivers/spi/libspi.a(amlogic_spi_a.o)
                                                  drivers/mtd/spi/libspi_flash.a(spi_flash_aml.o)
spi_init                                          drivers/spi/libspi.a(amlogic_spi_a.o)
spi_release_bus                                   drivers/spi/libspi.a(amlogic_spi_a.o)
                                                  drivers/mtd/spi/libspi_flash.a(winbond.o)
                                                  drivers/mtd/spi/libspi_flash.a(sst.o)
                                                  drivers/mtd/spi/libspi_flash.a(macronix.o)
                                                  drivers/mtd/spi/libspi_flash.a(spi_flash_aml.o)
spi_setup_slave                                   drivers/spi/libspi.a(amlogic_spi_a.o)
                                                  drivers/mtd/spi/libspi_flash.a(spi_flash_aml.o)
spi_xfer                                          drivers/spi/libspi.a(amlogic_spi_a.o)
                                                  drivers/mtd/spi/libspi_flash.a(spi_flash_aml.o)
sprintf                                           lib/libgeneric.a(vsprintf.o)
                                                  drivers/mtd/ubi/libubi.a(wl.o)
                                                  drivers/mtd/ubi/libubi.a(vmt.o)
                                                  drivers/mtd/ubi/libubi.a(build.o)
                                                  disk/libdisk.a(part_dos.o)
                                                  fs/ubifs/libubifs.a(super.o)
                                                  fs/ubifs/libubifs.a(ubifs.o)
                                                  arch/arm/lib/libarm.a(bootm.o)
                                                  board/amlogic/8726m_mid_refb04/lib8726m_mid_refb04.a(debug.o)
                                                  board/amlogic/8726m_mid_refb04/lib8726m_mid_refb04.a(upgrade.o)
                                                  board/amlogic/8726m_mid_refb04/lib8726m_mid_refb04.a(8726m_mid_refb04.o)
                                                  common/libcommon.a(kgdb.o)
                                                  common/libcommon.a(hush.o)
                                                  common/libcommon.a(cmd_ximg.o)
                                                  common/libcommon.a(cmd_ubi.o)
                                                  common/libcommon.a(cmd_nvedit.o)
                                                  common/libcommon.a(cmd_mtdparts.o)
                                                  common/libcommon.a(cmd_load.o)
                                                  common/libcommon.a(cmd_fat.o)
                                                  common/libcommon.a(cmd_ext2.o)
                                                  common/libcommon.a(cmd_bootm.o)
                                                  drivers/mtd/nand/libnand.a(m1_nand.o)
                                                  drivers/mmc/libmmc.a(mmc.o)
srec_decode                                       common/libcommon.a(s_record.o)
                                                  common/libcommon.a(cmd_load.o)
sst_erase                                         drivers/mtd/spi/libspi_flash.a(sst.o)
start_armboot                                     arch/arm/lib/libarm.a(board.o)
                                                  arch/arm/cpu/aml_meson/start.o
start_kernel                                      board/amlogic/8726m_mid_refb04/lib8726m_mid_refb04.a(upgrade.o)
                                                  board/amlogic/8726m_mid_refb04/lib8726m_mid_refb04.a(8726m_mid_refb04.o)
stdio_clone                                       common/libcommon.a(stdio.o)
stdio_devices                                     common/libcommon.a(stdio.o)
                                                  common/libcommon.a(console.o)
                                                  common/libcommon.a(cmd_console.o)
stdio_get_by_name                                 common/libcommon.a(stdio.o)
                                                  common/libcommon.a(console.o)
stdio_get_list                                    common/libcommon.a(stdio.o)
                                                  common/libcommon.a(console.o)
                                                  common/libcommon.a(cmd_console.o)
stdio_init                                        common/libcommon.a(stdio.o)
                                                  arch/arm/lib/libarm.a(board.o)
stdio_names                                       common/libcommon.a(stdio.o)
                                                  common/libcommon.a(console.o)
                                                  common/libcommon.a(cmd_console.o)
stdio_print_current_devices                       common/libcommon.a(console.o)
stdio_register                                    common/libcommon.a(stdio.o)
                                                  common/libcommon.a(lcd_aml.o)
strcat                                            lib/libgeneric.a(string.o)
                                                  fs/ubifs/libubifs.a(super.o)
                                                  arch/arm/lib/libarm.a(bootm.o)
                                                  common/libcommon.a(hush.o)
strchr                                            lib/libgeneric.a(string.o)
                                                  fs/ubifs/libubifs.a(ubifs.o)
                                                  fs/ext2/libext2fs.a(ext2fs.o)
                                                  common/libcommon.a(hush.o)
                                                  common/libcommon.a(env_common.o)
                                                  common/libcommon.a(command.o)
                                                  common/libcommon.a(cmd_nvedit.o)
                                                  common/libcommon.a(cmd_nand.o)
                                                  common/libcommon.a(cmd_mtdparts.o)
strcmp                                            lib/libgeneric.a(string.o)
                                                  common/libcommon.a(devfont.o)
                                                  drivers/mtd/ubi/libubi.a(kapi.o)
                                                  drivers/mtd/ubi/libubi.a(vmt.o)
                                                  drivers/mtd/libmtd.a(mtdcore.o)
                                                  fs/ext2/libext2fs.a(ext2fs.o)
                                                  fs/fat/libfat.a(fat.o)
                                                  board/amlogic/8726m_mid_refb04/lib8726m_mid_refb04.a(upgrade.o)
                                                  common/libcommon.a(stdio.o)
                                                  common/libcommon.a(lcd_aml.o)
                                                  common/libcommon.a(image.o)
                                                  common/libcommon.a(hush.o)
                                                  common/libcommon.a(exports.o)
                                                  common/libcommon.a(command.o)
                                                  common/libcommon.a(cmd_usb.o)
                                                  common/libcommon.a(cmd_ubi.o)
                                                  common/libcommon.a(cmd_test.o)
                                                  common/libcommon.a(cmd_sf.o)
                                                  common/libcommon.a(cmd_nvedit.o)
                                                  common/libcommon.a(cmd_nand.o)
                                                  common/libcommon.a(cmd_mtdparts.o)
                                                  common/libcommon.a(cmd_mmc.o)
                                                  common/libcommon.a(cmd_load.o)
                                                  common/libcommon.a(cmd_bootm.o)
                                                  common/libcommon.a(cmd_boot.o)
strcpy                                            lib/libgeneric.a(string.o)
                                                  drivers/mtd/ubi/libubi.a(build.o)
                                                  fs/ubifs/libubifs.a(ubifs.o)
                                                  fs/fat/libfat.a(fat.o)
                                                  arch/arm/lib/libarm.a(bootm.o)
                                                  board/amlogic/8726m_mid_refb04/lib8726m_mid_refb04.a(8726m_mid_refb04.o)
                                                  common/libcommon.a(stdio.o)
                                                  common/libcommon.a(main.o)
                                                  common/libcommon.a(lcd_aml.o)
                                                  common/libcommon.a(kgdb.o)
                                                  common/libcommon.a(hush.o)
                                                  common/libcommon.a(command.o)
                                                  common/libcommon.a(cmd_ubi.o)
                                                  common/libcommon.a(cmd_bootm.o)
strdup                                            lib/libgeneric.a(string.o)
                                                  common/libcommon.a(hush.o)
string_to_ip                                      lib/libgeneric.a(net_utils.o)
                                                  arch/arm/lib/libarm.a(board.o)
strlen                                            lib/libgeneric.a(string.o)
                                                  common/libcommon.a(devfont.o)
                                                  disk/libdisk.a(part.o)
                                                  fs/ubifs/libubifs.a(ubifs.o)
                                                  fs/ext2/libext2fs.a(ext2fs.o)
                                                  arch/arm/lib/libarm.a(bootm.o)
                                                  board/amlogic/8726m_mid_refb04/lib8726m_mid_refb04.a(8726m_mid_refb04.o)
                                                  common/libcommon.a(main.o)
                                                  common/libcommon.a(lcd_aml.o)
                                                  common/libcommon.a(kgdb.o)
                                                  common/libcommon.a(hush.o)
                                                  common/libcommon.a(env_common.o)
                                                  common/libcommon.a(command.o)
                                                  common/libcommon.a(cmd_usb.o)
                                                  common/libcommon.a(cmd_ubi.o)
                                                  common/libcommon.a(cmd_test.o)
                                                  common/libcommon.a(cmd_nvedit.o)
                                                  common/libcommon.a(cmd_mtdparts.o)
                                                  common/libcommon.a(cmd_itest.o)
                                                  common/libcommon.a(cmd_bootm.o)
                                                  drivers/mtd/nand/libnand.a(aml_nand.o)
strncat                                           lib/libgeneric.a(string.o)
                                                  common/libcommon.a(hush.o)
strncmp                                           lib/libgeneric.a(string.o)
                                                  drivers/mtd/ubi/libubi.a(vtbl.o)
                                                  disk/libdisk.a(part_dos.o)
                                                  disk/libdisk.a(part.o)
                                                  fs/ubifs/libubifs.a(ubifs.o)
                                                  fs/fat/libfat.a(fat.o)
                                                  common/libcommon.a(command.o)
                                                  common/libcommon.a(cmd_usb.o)
                                                  common/libcommon.a(cmd_ubi.o)
                                                  common/libcommon.a(cmd_nand.o)
                                                  common/libcommon.a(cmd_mtdparts.o)
                                                  common/libcommon.a(cmd_itest.o)
                                                  common/libcommon.a(cmd_ext2.o)
                                                  drivers/mtd/nand/libnand.a(aml_nand.o)
strncpy                                           lib/libgeneric.a(string.o)
                                                  fs/ubifs/libubifs.a(super.o)
                                                  fs/ext2/libext2fs.a(ext2fs.o)
                                                  board/amlogic/8726m_mid_refb04/lib8726m_mid_refb04.a(8726m_mid_refb04.o)
                                                  common/libcommon.a(stdio.o)
                                                  common/libcommon.a(hush.o)
                                                  common/libcommon.a(cmd_usb.o)
                                                  common/libcommon.a(cmd_mtdparts.o)
strnlen                                           lib/libgeneric.a(string.o)
                                                  drivers/mtd/ubi/libubi.a(kapi.o)
                                                  drivers/mtd/ubi/libubi.a(vtbl.o)
                                                  drivers/mtd/ubi/libubi.a(build.o)
                                                  fs/ubifs/libubifs.a(replay.o)
                                                  lib/libgeneric.a(vsprintf.o)
                                                  common/libcommon.a(cmd_ubi.o)
strpbrk                                           lib/libgeneric.a(string.o)
strrchr                                           lib/libgeneric.a(string.o)
strsep                                            lib/libgeneric.a(string.o)
                                                  drivers/mtd/ubi/libubi.a(build.o)
strspn                                            lib/libgeneric.a(string.o)
strstr                                            lib/libgeneric.a(string.o)
                                                  arch/arm/lib/libarm.a(bootm.o)
strswab                                           lib/libgeneric.a(string.o)
strtok                                            lib/libgeneric.a(string.o)
submit_bulk_msg                                   drivers/usb/host/libusb_host.a(dwc_otg_hcd.o)
                                                  common/libcommon.a(usb.o)
submit_control_msg                                drivers/usb/host/libusb_host.a(dwc_otg_hcd.o)
                                                  common/libcommon.a(usb.o)
submit_int_msg                                    drivers/usb/host/libusb_host.a(dwc_otg_hcd.o)
                                                  common/libcommon.a(usb_storage.o)
                                                  common/libcommon.a(usb.o)
switch_boot_mode                                  board/amlogic/8726m_mid_refb04/lib8726m_mid_refb04.a(8726m_mid_refb04.o)
                                                  common/libcommon.a(main.o)
symlinknest                                       fs/ext2/libext2fs.a(ext2fs.o)
tcon_config                                       board/amlogic/8726m_mid_refb04/lib8726m_mid_refb04.a(lcd.o)
                                                  arch/arm/cpu/aml_meson/m1/libm1.a(tcon.o)
tcon_probe                                        arch/arm/cpu/aml_meson/m1/libm1.a(tcon.o)
                                                  board/amlogic/8726m_mid_refb04/lib8726m_mid_refb04.a(lcd.o)
tcon_remove                                       arch/arm/cpu/aml_meson/m1/libm1.a(tcon.o)
                                                  board/amlogic/8726m_mid_refb04/lib8726m_mid_refb04.a(lcd.o)
test_part_dos                                     disk/libdisk.a(part_dos.o)
                                                  disk/libdisk.a(part.o)
tick_delay                                        lib/libgeneric.a(time.o)
timer_init                                        arch/arm/cpu/aml_meson/m1/libm1.a(timer.o)
                                                  arch/arm/lib/libarm.a(board.o)
touch_init                                        board/amlogic/8726m_mid_refb04/lib8726m_mid_refb04.a(8726m_mid_refb04.o)
tstc                                              common/libcommon.a(console.o)
                                                  lib/libgeneric.a(time.o)
                                                  common/libcommon.a(xyzModem.o)
                                                  common/libcommon.a(main.o)
                                                  common/libcommon.a(exports.o)
                                                  common/libcommon.a(cmd_load.o)
u_boot_hush_start                                 common/libcommon.a(hush.o)
                                                  common/libcommon.a(main.o)
ubi_add_volume                                    drivers/mtd/ubi/libubi.a(vmt.o)
                                                  drivers/mtd/ubi/libubi.a(build.o)
ubi_attach_mtd_dev                                drivers/mtd/ubi/libubi.a(build.o)
ubi_calc_data_len                                 drivers/mtd/ubi/libubi.a(misc.o)
                                                  drivers/mtd/ubi/libubi.a(eba.o)
                                                  drivers/mtd/ubi/libubi.a(upd.o)
ubi_calculate_reserved                            drivers/mtd/ubi/libubi.a(misc.o)
                                                  drivers/mtd/ubi/libubi.a(wl.o)
                                                  drivers/mtd/ubi/libubi.a(eba.o)
ubi_change_vtbl_record                            drivers/mtd/ubi/libubi.a(vtbl.o)
                                                  drivers/mtd/ubi/libubi.a(upd.o)
                                                  drivers/mtd/ubi/libubi.a(vmt.o)
                                                  drivers/mtd/ubi/libubi.a(build.o)
                                                  common/libcommon.a(cmd_ubi.o)
ubi_check_volume                                  drivers/mtd/ubi/libubi.a(misc.o)
                                                  drivers/mtd/ubi/libubi.a(kapi.o)
                                                  common/libcommon.a(cmd_ubi.o)
ubi_class                                         drivers/mtd/ubi/libubi.a(vmt.o)
                                                  drivers/mtd/ubi/libubi.a(build.o)
ubi_close_volume                                  drivers/mtd/ubi/libubi.a(kapi.o)
                                                  fs/ubifs/libubifs.a(super.o)
                                                  fs/ubifs/libubifs.a(ubifs.o)
ubi_create_volume                                 drivers/mtd/ubi/libubi.a(vmt.o)
                                                  common/libcommon.a(cmd_ubi.o)
ubi_detach_mtd_dev                                drivers/mtd/ubi/libubi.a(build.o)
ubi_devices                                       drivers/mtd/ubi/libubi.a(build.o)
                                                  common/libcommon.a(cmd_ubi.o)
ubi_eba_atomic_leb_change                         drivers/mtd/ubi/libubi.a(eba.o)
                                                  drivers/mtd/ubi/libubi.a(kapi.o)
                                                  drivers/mtd/ubi/libubi.a(upd.o)
ubi_eba_close                                     drivers/mtd/ubi/libubi.a(eba.o)
                                                  drivers/mtd/ubi/libubi.a(build.o)
ubi_eba_copy_leb                                  drivers/mtd/ubi/libubi.a(eba.o)
                                                  drivers/mtd/ubi/libubi.a(wl.o)
ubi_eba_init_scan                                 drivers/mtd/ubi/libubi.a(eba.o)
                                                  drivers/mtd/ubi/libubi.a(build.o)
ubi_eba_read_leb                                  drivers/mtd/ubi/libubi.a(eba.o)
                                                  drivers/mtd/ubi/libubi.a(misc.o)
                                                  drivers/mtd/ubi/libubi.a(kapi.o)
                                                  common/libcommon.a(cmd_ubi.o)
ubi_eba_unmap_leb                                 drivers/mtd/ubi/libubi.a(eba.o)
                                                  drivers/mtd/ubi/libubi.a(kapi.o)
                                                  drivers/mtd/ubi/libubi.a(upd.o)
                                                  drivers/mtd/ubi/libubi.a(vmt.o)
                                                  drivers/mtd/ubi/libubi.a(vtbl.o)
                                                  common/libcommon.a(cmd_ubi.o)
ubi_eba_write_leb                                 drivers/mtd/ubi/libubi.a(eba.o)
                                                  drivers/mtd/ubi/libubi.a(kapi.o)
                                                  drivers/mtd/ubi/libubi.a(upd.o)
                                                  drivers/mtd/ubi/libubi.a(vtbl.o)
ubi_eba_write_leb_st                              drivers/mtd/ubi/libubi.a(eba.o)
                                                  drivers/mtd/ubi/libubi.a(upd.o)
ubi_exit                                          drivers/mtd/ubi/libubi.a(build.o)
                                                  common/libcommon.a(cmd_ubi.o)
ubi_free_volume                                   drivers/mtd/ubi/libubi.a(vmt.o)
                                                  drivers/mtd/ubi/libubi.a(build.o)
ubi_get_by_major                                  drivers/mtd/ubi/libubi.a(build.o)
ubi_get_device                                    drivers/mtd/ubi/libubi.a(build.o)
                                                  drivers/mtd/ubi/libubi.a(kapi.o)
ubi_get_device_info                               drivers/mtd/ubi/libubi.a(kapi.o)
                                                  fs/ubifs/libubifs.a(super.o)
ubi_get_volume_info                               drivers/mtd/ubi/libubi.a(kapi.o)
                                                  fs/ubifs/libubifs.a(super.o)
ubi_init                                          drivers/mtd/ubi/libubi.a(build.o)
                                                  common/libcommon.a(cmd_ubi.o)
ubi_io_is_bad                                     drivers/mtd/ubi/libubi.a(io.o)
                                                  drivers/mtd/ubi/libubi.a(scan.o)
ubi_io_mark_bad                                   drivers/mtd/ubi/libubi.a(io.o)
                                                  drivers/mtd/ubi/libubi.a(wl.o)
ubi_io_read                                       drivers/mtd/ubi/libubi.a(io.o)
                                                  drivers/mtd/ubi/libubi.a(scan.o)
                                                  drivers/mtd/ubi/libubi.a(eba.o)
                                                  drivers/mtd/ubi/libubi.a(vtbl.o)
ubi_io_read_ec_hdr                                drivers/mtd/ubi/libubi.a(io.o)
                                                  drivers/mtd/ubi/libubi.a(scan.o)
ubi_io_read_vid_hdr                               drivers/mtd/ubi/libubi.a(io.o)
                                                  drivers/mtd/ubi/libubi.a(scan.o)
                                                  drivers/mtd/ubi/libubi.a(wl.o)
                                                  drivers/mtd/ubi/libubi.a(eba.o)
ubi_io_sync_erase                                 drivers/mtd/ubi/libubi.a(io.o)
                                                  drivers/mtd/ubi/libubi.a(scan.o)
                                                  drivers/mtd/ubi/libubi.a(wl.o)
ubi_io_write                                      drivers/mtd/ubi/libubi.a(io.o)
                                                  drivers/mtd/ubi/libubi.a(eba.o)
                                                  drivers/mtd/ubi/libubi.a(vtbl.o)
ubi_io_write_ec_hdr                               drivers/mtd/ubi/libubi.a(io.o)
                                                  drivers/mtd/ubi/libubi.a(scan.o)
                                                  drivers/mtd/ubi/libubi.a(wl.o)
ubi_io_write_vid_hdr                              drivers/mtd/ubi/libubi.a(io.o)
                                                  drivers/mtd/ubi/libubi.a(eba.o)
                                                  drivers/mtd/ubi/libubi.a(vtbl.o)
ubi_is_mapped                                     drivers/mtd/ubi/libubi.a(kapi.o)
                                                  fs/ubifs/libubifs.a(super.o)
ubi_leb_change                                    drivers/mtd/ubi/libubi.a(kapi.o)
                                                  fs/ubifs/libubifs.a(recovery.o)
ubi_leb_erase                                     drivers/mtd/ubi/libubi.a(kapi.o)
ubi_leb_map                                       drivers/mtd/ubi/libubi.a(kapi.o)
ubi_leb_read                                      drivers/mtd/ubi/libubi.a(kapi.o)
                                                  fs/ubifs/libubifs.a(io.o)
                                                  fs/ubifs/libubifs.a(recovery.o)
                                                  fs/ubifs/libubifs.a(tnc.o)
                                                  fs/ubifs/libubifs.a(scan.o)
                                                  fs/ubifs/libubifs.a(lpt.o)
ubi_leb_unmap                                     drivers/mtd/ubi/libubi.a(kapi.o)
                                                  fs/ubifs/libubifs.a(recovery.o)
                                                  fs/ubifs/libubifs.a(orphan.o)
ubi_leb_write                                     drivers/mtd/ubi/libubi.a(kapi.o)
ubi_major2num                                     drivers/mtd/ubi/libubi.a(build.o)
ubi_more_leb_change_data                          drivers/mtd/ubi/libubi.a(upd.o)
ubi_more_update_data                              drivers/mtd/ubi/libubi.a(upd.o)
                                                  common/libcommon.a(cmd_ubi.o)
ubi_mtd_param_parse                               drivers/mtd/ubi/libubi.a(build.o)
                                                  common/libcommon.a(cmd_ubi.o)
ubi_open_volume                                   drivers/mtd/ubi/libubi.a(kapi.o)
                                                  fs/ubifs/libubifs.a(super.o)
                                                  fs/ubifs/libubifs.a(ubifs.o)
ubi_open_volume_nm                                drivers/mtd/ubi/libubi.a(kapi.o)
                                                  fs/ubifs/libubifs.a(super.o)
ubi_put_device                                    drivers/mtd/ubi/libubi.a(build.o)
                                                  drivers/mtd/ubi/libubi.a(kapi.o)
ubi_read_volume_table                             drivers/mtd/ubi/libubi.a(vtbl.o)
                                                  drivers/mtd/ubi/libubi.a(build.o)
ubi_remove_volume                                 drivers/mtd/ubi/libubi.a(vmt.o)
ubi_resize_volume                                 drivers/mtd/ubi/libubi.a(vmt.o)
                                                  drivers/mtd/ubi/libubi.a(build.o)
ubi_scan                                          drivers/mtd/ubi/libubi.a(scan.o)
                                                  drivers/mtd/ubi/libubi.a(build.o)
ubi_scan_add_used                                 drivers/mtd/ubi/libubi.a(scan.o)
                                                  drivers/mtd/ubi/libubi.a(vtbl.o)
ubi_scan_destroy_si                               drivers/mtd/ubi/libubi.a(scan.o)
                                                  drivers/mtd/ubi/libubi.a(build.o)
ubi_scan_erase_peb                                drivers/mtd/ubi/libubi.a(scan.o)
ubi_scan_find_seb                                 drivers/mtd/ubi/libubi.a(scan.o)
                                                  drivers/mtd/ubi/libubi.a(vtbl.o)
ubi_scan_find_sv                                  drivers/mtd/ubi/libubi.a(scan.o)
                                                  drivers/mtd/ubi/libubi.a(eba.o)
                                                  drivers/mtd/ubi/libubi.a(vtbl.o)
ubi_scan_get_free_peb                             drivers/mtd/ubi/libubi.a(scan.o)
                                                  drivers/mtd/ubi/libubi.a(vtbl.o)
ubi_scan_rm_volume                                drivers/mtd/ubi/libubi.a(scan.o)
                                                  drivers/mtd/ubi/libubi.a(vtbl.o)
ubi_start_leb_change                              drivers/mtd/ubi/libubi.a(upd.o)
ubi_start_update                                  drivers/mtd/ubi/libubi.a(upd.o)
                                                  common/libcommon.a(cmd_ubi.o)
ubi_thread                                        drivers/mtd/ubi/libubi.a(wl.o)
ubi_wl_close                                      drivers/mtd/ubi/libubi.a(wl.o)
                                                  drivers/mtd/ubi/libubi.a(build.o)
ubi_wl_flush                                      drivers/mtd/ubi/libubi.a(wl.o)
                                                  drivers/mtd/ubi/libubi.a(kapi.o)
                                                  drivers/mtd/ubi/libubi.a(upd.o)
                                                  drivers/mtd/ubi/libubi.a(vmt.o)
ubi_wl_get_peb                                    drivers/mtd/ubi/libubi.a(wl.o)
                                                  drivers/mtd/ubi/libubi.a(eba.o)
ubi_wl_init_scan                                  drivers/mtd/ubi/libubi.a(wl.o)
                                                  drivers/mtd/ubi/libubi.a(build.o)
ubi_wl_put_peb                                    drivers/mtd/ubi/libubi.a(wl.o)
                                                  drivers/mtd/ubi/libubi.a(eba.o)
ubi_wl_scrub_peb                                  drivers/mtd/ubi/libubi.a(wl.o)
                                                  drivers/mtd/ubi/libubi.a(eba.o)
ubifs_add_bud                                     fs/ubifs/libubifs.a(log.o)
                                                  fs/ubifs/libubifs.a(replay.o)
ubifs_add_lpt_dirt                                fs/ubifs/libubifs.a(lpt.o)
ubifs_add_nnode_dirt                              fs/ubifs/libubifs.a(lpt.o)
ubifs_add_snod                                    fs/ubifs/libubifs.a(scan.o)
                                                  fs/ubifs/libubifs.a(recovery.o)
ubifs_add_to_cat                                  fs/ubifs/libubifs.a(lprops.o)
                                                  fs/ubifs/libubifs.a(lpt.o)
ubifs_calc_lpt_geom                               fs/ubifs/libubifs.a(lpt.o)
                                                  fs/ubifs/libubifs.a(super.o)
ubifs_calc_min_idx_lebs                           fs/ubifs/libubifs.a(budget.o)
                                                  fs/ubifs/libubifs.a(super.o)
ubifs_categorize_lprops                           fs/ubifs/libubifs.a(lprops.o)
                                                  fs/ubifs/libubifs.a(lpt.o)
ubifs_change_lp                                   fs/ubifs/libubifs.a(lprops.o)
                                                  fs/ubifs/libubifs.a(replay.o)
ubifs_change_one_lp                               fs/ubifs/libubifs.a(lprops.o)
ubifs_check_node                                  fs/ubifs/libubifs.a(io.o)
                                                  fs/ubifs/libubifs.a(recovery.o)
                                                  fs/ubifs/libubifs.a(tnc.o)
                                                  fs/ubifs/libubifs.a(scan.o)
ubifs_clean_lebs                                  fs/ubifs/libubifs.a(recovery.o)
ubifs_clear_orphans                               fs/ubifs/libubifs.a(orphan.o)
ubifs_compressors                                 fs/ubifs/libubifs.a(super.o)
                                                  fs/ubifs/libubifs.a(ubifs.o)
ubifs_compressors_init                            fs/ubifs/libubifs.a(ubifs.o)
                                                  fs/ubifs/libubifs.a(super.o)
ubifs_decompress                                  fs/ubifs/libubifs.a(ubifs.o)
ubifs_end_scan                                    fs/ubifs/libubifs.a(scan.o)
                                                  fs/ubifs/libubifs.a(recovery.o)
ubifs_ensure_cat                                  fs/ubifs/libubifs.a(lprops.o)
ubifs_fast_find_empty                             fs/ubifs/libubifs.a(lprops.o)
ubifs_fast_find_frdi_idx                          fs/ubifs/libubifs.a(lprops.o)
ubifs_fast_find_free                              fs/ubifs/libubifs.a(lprops.o)
ubifs_fast_find_freeable                          fs/ubifs/libubifs.a(lprops.o)
ubifs_get_lp_stats                                fs/ubifs/libubifs.a(lprops.o)
ubifs_get_nnode                                   fs/ubifs/libubifs.a(lpt.o)
ubifs_get_pnode                                   fs/ubifs/libubifs.a(lpt.o)
ubifs_iget                                        fs/ubifs/libubifs.a(super.o)
                                                  fs/ubifs/libubifs.a(recovery.o)
                                                  fs/ubifs/libubifs.a(ubifs.o)
ubifs_infos                                       fs/ubifs/libubifs.a(super.o)
ubifs_init                                        fs/ubifs/libubifs.a(super.o)
                                                  common/libcommon.a(cmd_ubifs.o)
ubifs_iput                                        fs/ubifs/libubifs.a(super.o)
                                                  fs/ubifs/libubifs.a(ubifs.o)
ubifs_load                                        fs/ubifs/libubifs.a(ubifs.o)
                                                  common/libcommon.a(cmd_ubifs.o)
ubifs_load_znode                                  fs/ubifs/libubifs.a(tnc_misc.o)
                                                  fs/ubifs/libubifs.a(tnc.o)
ubifs_lookup_level0                               fs/ubifs/libubifs.a(tnc.o)
ubifs_lpt_free                                    fs/ubifs/libubifs.a(lpt_commit.o)
                                                  fs/ubifs/libubifs.a(super.o)
ubifs_lpt_init                                    fs/ubifs/libubifs.a(lpt.o)
                                                  fs/ubifs/libubifs.a(super.o)
ubifs_lpt_lookup                                  fs/ubifs/libubifs.a(lpt.o)
                                                  fs/ubifs/libubifs.a(lprops.o)
ubifs_lpt_lookup_dirty                            fs/ubifs/libubifs.a(lpt.o)
                                                  fs/ubifs/libubifs.a(replay.o)
                                                  fs/ubifs/libubifs.a(lprops.o)
ubifs_ls                                          fs/ubifs/libubifs.a(ubifs.o)
                                                  common/libcommon.a(cmd_ubifs.o)
ubifs_mount                                       fs/ubifs/libubifs.a(super.o)
                                                  common/libcommon.a(cmd_ubifs.o)
ubifs_mount_orphans                               fs/ubifs/libubifs.a(orphan.o)
                                                  fs/ubifs/libubifs.a(super.o)
ubifs_pad                                         fs/ubifs/libubifs.a(io.o)
                                                  fs/ubifs/libubifs.a(recovery.o)
ubifs_prepare_node                                fs/ubifs/libubifs.a(io.o)
                                                  fs/ubifs/libubifs.a(recovery.o)
ubifs_read_master                                 fs/ubifs/libubifs.a(master.o)
                                                  fs/ubifs/libubifs.a(super.o)
ubifs_read_nnode                                  fs/ubifs/libubifs.a(lpt.o)
ubifs_read_node                                   fs/ubifs/libubifs.a(io.o)
                                                  fs/ubifs/libubifs.a(tnc_misc.o)
                                                  fs/ubifs/libubifs.a(sb.o)
ubifs_read_one_lp                                 fs/ubifs/libubifs.a(lprops.o)
ubifs_read_sb_node                                fs/ubifs/libubifs.a(sb.o)
ubifs_read_superblock                             fs/ubifs/libubifs.a(sb.o)
                                                  fs/ubifs/libubifs.a(super.o)
ubifs_recover_inl_heads                           fs/ubifs/libubifs.a(recovery.o)
ubifs_recover_leb                                 fs/ubifs/libubifs.a(recovery.o)
                                                  fs/ubifs/libubifs.a(replay.o)
                                                  fs/ubifs/libubifs.a(orphan.o)
ubifs_recover_log_leb                             fs/ubifs/libubifs.a(recovery.o)
                                                  fs/ubifs/libubifs.a(replay.o)
ubifs_recover_master_node                         fs/ubifs/libubifs.a(recovery.o)
                                                  fs/ubifs/libubifs.a(master.o)
ubifs_recover_size                                fs/ubifs/libubifs.a(recovery.o)
                                                  fs/ubifs/libubifs.a(super.o)
ubifs_recover_size_accum                          fs/ubifs/libubifs.a(recovery.o)
                                                  fs/ubifs/libubifs.a(replay.o)
ubifs_replace_cat                                 fs/ubifs/libubifs.a(lprops.o)
                                                  fs/ubifs/libubifs.a(lpt.o)
ubifs_replay_journal                              fs/ubifs/libubifs.a(replay.o)
                                                  fs/ubifs/libubifs.a(super.o)
ubifs_reported_space                              fs/ubifs/libubifs.a(budget.o)
                                                  fs/ubifs/libubifs.a(sb.o)
                                                  fs/ubifs/libubifs.a(super.o)
ubifs_ro_mode                                     fs/ubifs/libubifs.a(io.o)
ubifs_sb                                          fs/ubifs/libubifs.a(super.o)
                                                  fs/ubifs/libubifs.a(ubifs.o)
ubifs_scan                                        fs/ubifs/libubifs.a(scan.o)
                                                  fs/ubifs/libubifs.a(replay.o)
                                                  fs/ubifs/libubifs.a(recovery.o)
                                                  fs/ubifs/libubifs.a(orphan.o)
                                                  fs/ubifs/libubifs.a(master.o)
ubifs_scan_a_node                                 fs/ubifs/libubifs.a(scan.o)
                                                  fs/ubifs/libubifs.a(recovery.o)
ubifs_scan_destroy                                fs/ubifs/libubifs.a(scan.o)
                                                  fs/ubifs/libubifs.a(replay.o)
                                                  fs/ubifs/libubifs.a(recovery.o)
                                                  fs/ubifs/libubifs.a(orphan.o)
                                                  fs/ubifs/libubifs.a(master.o)
ubifs_scanned_corruption                          fs/ubifs/libubifs.a(scan.o)
                                                  fs/ubifs/libubifs.a(recovery.o)
ubifs_search_bud                                  fs/ubifs/libubifs.a(log.o)
                                                  fs/ubifs/libubifs.a(replay.o)
ubifs_search_zbranch                              fs/ubifs/libubifs.a(tnc_misc.o)
                                                  fs/ubifs/libubifs.a(tnc.o)
ubifs_start_scan                                  fs/ubifs/libubifs.a(scan.o)
                                                  fs/ubifs/libubifs.a(recovery.o)
ubifs_tnc_add                                     fs/ubifs/libubifs.a(tnc.o)
                                                  fs/ubifs/libubifs.a(replay.o)
ubifs_tnc_add_nm                                  fs/ubifs/libubifs.a(tnc.o)
                                                  fs/ubifs/libubifs.a(replay.o)
ubifs_tnc_bulk_read                               fs/ubifs/libubifs.a(tnc.o)
ubifs_tnc_get_bu_keys                             fs/ubifs/libubifs.a(tnc.o)
ubifs_tnc_levelorder_next                         fs/ubifs/libubifs.a(tnc_misc.o)
ubifs_tnc_locate                                  fs/ubifs/libubifs.a(tnc.o)
                                                  fs/ubifs/libubifs.a(recovery.o)
                                                  fs/ubifs/libubifs.a(super.o)
                                                  fs/ubifs/libubifs.a(ubifs.o)
ubifs_tnc_lookup_nm                               fs/ubifs/libubifs.a(tnc.o)
ubifs_tnc_next_ent                                fs/ubifs/libubifs.a(tnc.o)
                                                  fs/ubifs/libubifs.a(ubifs.o)
ubifs_tnc_postorder_first                         fs/ubifs/libubifs.a(tnc_misc.o)
ubifs_tnc_postorder_next                          fs/ubifs/libubifs.a(tnc_misc.o)
ubifs_tnc_read_node                               fs/ubifs/libubifs.a(tnc_misc.o)
                                                  fs/ubifs/libubifs.a(tnc.o)
ubifs_tnc_remove                                  fs/ubifs/libubifs.a(tnc.o)
                                                  fs/ubifs/libubifs.a(replay.o)
ubifs_tnc_remove_ino                              fs/ubifs/libubifs.a(tnc.o)
                                                  fs/ubifs/libubifs.a(replay.o)
                                                  fs/ubifs/libubifs.a(recovery.o)
                                                  fs/ubifs/libubifs.a(orphan.o)
ubifs_tnc_remove_nm                               fs/ubifs/libubifs.a(tnc.o)
                                                  fs/ubifs/libubifs.a(replay.o)
ubifs_tnc_remove_range                            fs/ubifs/libubifs.a(tnc.o)
                                                  fs/ubifs/libubifs.a(replay.o)
ubifs_tnc_replace                                 fs/ubifs/libubifs.a(tnc.o)
ubifs_umount                                      fs/ubifs/libubifs.a(super.o)
ubifs_unpack_bits                                 fs/ubifs/libubifs.a(lpt.o)
ubifs_unpack_nnode                                fs/ubifs/libubifs.a(lpt.o)
ubifs_update_one_lp                               fs/ubifs/libubifs.a(lprops.o)
                                                  fs/ubifs/libubifs.a(tnc.o)
ubifs_validate_entry                              fs/ubifs/libubifs.a(replay.o)
                                                  fs/ubifs/libubifs.a(tnc.o)
ubifs_write_rcvrd_mst_node                        fs/ubifs/libubifs.a(recovery.o)
udelay                                            lib/libgeneric.a(time.o)
                                                  drivers/usb/host/libusb_host.a(dwc_otg_hcd.o)
                                                  drivers/mmc/libmmc.a(aml_sd_mmc.o)
                                                  arch/arm/lib/libarm.a(reset.o)
                                                  lib/libgeneric.a(vsprintf.o)
                                                  board/amlogic/8726m_mid_refb04/lib8726m_mid_refb04.a(lcd.o)
                                                  board/amlogic/8726m_mid_refb04/lib8726m_mid_refb04.a(8726m_mid_refb04.o)
                                                  common/libcommon.a(xyzModem.o)
                                                  common/libcommon.a(usb.o)
                                                  common/libcommon.a(main.o)
                                                  common/libcommon.a(exports.o)
                                                  common/libcommon.a(cmd_nvedit.o)
                                                  common/libcommon.a(cmd_misc.o)
                                                  common/libcommon.a(cmd_load.o)
                                                  drivers/rtc/librtc.a(aml_rtc.o)
                                                  drivers/mtd/nand/libnand.a(nand_base.o)
                                                  drivers/mtd/nand/libnand.a(aml_nand.o)
                                                  drivers/mmc/libmmc.a(mmc.o)
                                                  drivers/i2c/libi2c.a(aml_i2c.o)
unset_local_var                                   common/libcommon.a(hush.o)
update_ifs_map                                    common/libcommon.a(hush.o)
upgrade_boot                                      board/amlogic/8726m_mid_refb04/lib8726m_mid_refb04.a(upgrade.o)
                                                  board/amlogic/8726m_mid_refb04/lib8726m_mid_refb04.a(8726m_mid_refb04.o)
upgrade_env                                       board/amlogic/8726m_mid_refb04/lib8726m_mid_refb04.a(upgrade.o)
                                                  board/amlogic/8726m_mid_refb04/lib8726m_mid_refb04.a(8726m_mid_refb04.o)
upgrade_image                                     board/amlogic/8726m_mid_refb04/lib8726m_mid_refb04.a(upgrade.o)
                                                  board/amlogic/8726m_mid_refb04/lib8726m_mid_refb04.a(8726m_mid_refb04.o)
upgrade_logo                                      board/amlogic/8726m_mid_refb04/lib8726m_mid_refb04.a(upgrade.o)
                                                  board/amlogic/8726m_mid_refb04/lib8726m_mid_refb04.a(8726m_mid_refb04.o)
us_direction                                      common/libcommon.a(usb_storage.o)
usb_alloc_new_device                              common/libcommon.a(usb.o)
usb_bulk_msg                                      common/libcommon.a(usb.o)
                                                  common/libcommon.a(usb_storage.o)
usb_clear_halt                                    common/libcommon.a(usb.o)
                                                  common/libcommon.a(usb_storage.o)
usb_clear_hub_feature                             common/libcommon.a(usb.o)
usb_clear_port_feature                            common/libcommon.a(usb.o)
usb_control_msg                                   common/libcommon.a(usb.o)
                                                  common/libcommon.a(usb_storage.o)
usb_disable_asynch                                common/libcommon.a(usb.o)
                                                  common/libcommon.a(usb_storage.o)
usb_display_class_sub                             common/libcommon.a(cmd_usb.o)
usb_display_conf_desc                             common/libcommon.a(cmd_usb.o)
usb_display_config                                common/libcommon.a(cmd_usb.o)
usb_display_desc                                  common/libcommon.a(cmd_usb.o)
usb_display_ep_desc                               common/libcommon.a(cmd_usb.o)
usb_display_if_desc                               common/libcommon.a(cmd_usb.o)
usb_display_string                                common/libcommon.a(cmd_usb.o)
usb_get_class_desc                                common/libcommon.a(cmd_usb.o)
usb_get_class_descriptor                          common/libcommon.a(usb.o)
usb_get_configuration_no                          common/libcommon.a(usb.o)
usb_get_descriptor                                common/libcommon.a(usb.o)
usb_get_dev_index                                 common/libcommon.a(usb.o)
                                                  common/libcommon.a(usb_storage.o)
                                                  common/libcommon.a(cmd_usb.o)
usb_get_hub_descriptor                            common/libcommon.a(usb.o)
usb_get_hub_status                                common/libcommon.a(usb.o)
usb_get_port_status                               common/libcommon.a(usb.o)
usb_get_report                                    common/libcommon.a(usb.o)
usb_get_string                                    common/libcommon.a(usb.o)
usb_hub_allocate                                  common/libcommon.a(usb.o)
usb_hub_configure                                 common/libcommon.a(usb.o)
usb_hub_port_connect_change                       common/libcommon.a(usb.o)
usb_hub_probe                                     common/libcommon.a(usb.o)
usb_hub_reset                                     common/libcommon.a(usb.o)
usb_init                                          common/libcommon.a(usb.o)
                                                  common/libcommon.a(cmd_usb.o)
usb_lowlevel_init                                 drivers/usb/host/libusb_host.a(dwc_otg_hcd.o)
                                                  common/libcommon.a(usb.o)
usb_lowlevel_stop                                 drivers/usb/host/libusb_host.a(dwc_otg_hcd.o)
                                                  common/libcommon.a(usb.o)
usb_maxpacket                                     common/libcommon.a(usb.o)
                                                  drivers/usb/host/libusb_host.a(dwc_otg_hcd.o)
                                                  common/libcommon.a(usb_storage.o)
usb_new_device                                    common/libcommon.a(usb.o)
usb_parse_config                                  common/libcommon.a(usb.o)
usb_scan_devices                                  common/libcommon.a(usb.o)
usb_set_address                                   common/libcommon.a(usb.o)
usb_set_configuration                             common/libcommon.a(usb.o)
usb_set_idle                                      common/libcommon.a(usb.o)
usb_set_interface                                 common/libcommon.a(usb.o)
                                                  common/libcommon.a(usb_storage.o)
usb_set_maxpacket                                 common/libcommon.a(usb.o)
usb_set_port_feature                              common/libcommon.a(usb.o)
usb_set_protocol                                  common/libcommon.a(usb.o)
usb_show_progress                                 common/libcommon.a(usb_storage.o)
usb_show_tree                                     common/libcommon.a(cmd_usb.o)
usb_show_tree_graph                               common/libcommon.a(cmd_usb.o)
usb_started                                       common/libcommon.a(usb.o)
                                                  common/libcommon.a(cmd_usb.o)
usb_stop                                          common/libcommon.a(usb.o)
                                                  common/libcommon.a(cmd_usb.o)
                                                  common/libcommon.a(cmd_bootm.o)
usb_stor_BBB_clear_endpt_stall                    common/libcommon.a(usb_storage.o)
usb_stor_BBB_comdat                               common/libcommon.a(usb_storage.o)
usb_stor_BBB_transport                            common/libcommon.a(usb_storage.o)
usb_stor_CBI_get_status                           common/libcommon.a(usb_storage.o)
usb_stor_CB_comdat                                common/libcommon.a(usb_storage.o)
usb_stor_CB_transport                             common/libcommon.a(usb_storage.o)
usb_stor_get_dev                                  common/libcommon.a(usb_storage.o)
                                                  disk/libdisk.a(part.o)
                                                  common/libcommon.a(cmd_usb.o)
usb_stor_get_info                                 common/libcommon.a(usb_storage.o)
usb_stor_info                                     common/libcommon.a(usb_storage.o)
                                                  common/libcommon.a(cmd_usb.o)
usb_stor_read                                     common/libcommon.a(usb_storage.o)
usb_stor_scan                                     common/libcommon.a(usb_storage.o)
                                                  common/libcommon.a(cmd_usb.o)
usb_stor_write                                    common/libcommon.a(usb_storage.o)
usb_storage_probe                                 common/libcommon.a(usb_storage.o)
usb_string                                        common/libcommon.a(usb.o)
                                                  common/libcommon.a(cmd_usb.o)
usb_submit_int_msg                                common/libcommon.a(usb.o)
ustrtoul                                          lib/libgeneric.a(vsprintf.o)
valloc                                            common/libcommon.a(dlmalloc.o)
var_complete                                      common/libcommon.a(command.o)
version_string                                    arch/arm/lib/libarm.a(board.o)
                                                  lib/libgeneric.a(display_options.o)
                                                  common/libcommon.a(cmd_version.o)
video_dac_disable                                 board/amlogic/8726m_mid_refb04/lib8726m_mid_refb04.a(lcd.o)
video_dac_enable                                  board/amlogic/8726m_mid_refb04/lib8726m_mid_refb04.a(lcd.o)
vprintf                                           common/libcommon.a(console.o)
                                                  lib/libgeneric.a(vsprintf.o)
                                                  common/libcommon.a(exports.o)
vsprintf                                          lib/libgeneric.a(vsprintf.o)
                                                  common/libcommon.a(lcd_aml.o)
                                                  common/libcommon.a(console.o)
wait_ms                                           common/libcommon.a(usb.o)
                                                  drivers/usb/host/libusb_host.a(dwc_otg_hcd.o)
                                                  common/libcommon.a(usb_storage.o)
winbond_erase                                     drivers/mtd/spi/libspi_flash.a(winbond.o)
writeenv                                          common/libcommon.a(env_nand.o)
xyzModem_error                                    common/libcommon.a(xyzModem.o)
                                                  common/libcommon.a(cmd_load.o)
xyzModem_stream_close                             common/libcommon.a(xyzModem.o)
                                                  common/libcommon.a(cmd_load.o)
xyzModem_stream_open                              common/libcommon.a(xyzModem.o)
                                                  common/libcommon.a(cmd_load.o)
xyzModem_stream_read                              common/libcommon.a(xyzModem.o)
                                                  common/libcommon.a(cmd_load.o)
xyzModem_stream_terminate                         common/libcommon.a(xyzModem.o)
                                                  common/libcommon.a(cmd_load.o)
yellow_LED_off                                    arch/arm/lib/libarm.a(board.o)
yellow_LED_on                                     arch/arm/lib/libarm.a(board.o)
z_errmsg                                          lib/libgeneric.a(zlib.o)
zalloc                                            lib/libgeneric.a(gunzip.o)
zcalloc                                           lib/libgeneric.a(zlib.o)
zcfree                                            lib/libgeneric.a(zlib.o)
zfree                                             lib/libgeneric.a(gunzip.o)
zunzip                                            lib/libgeneric.a(gunzip.o)
                                                  fs/ubifs/libubifs.a(ubifs.o)
